(iclasses.project
project
p1
(dp2
S'USER_DIR'
p3
S'/home/olli/.openshot'
p4
sS'IMAGE_DIR'
p5
S'/usr/lib/pymodules/python2.7/openshot/images'
p6
sS'theme_settings'
p7
NsS'THEMES_DIR'
p8
S'/usr/lib/pymodules/python2.7/openshot/themes'
p9
sS'TRANSITIONS_DIR'
p10
S'/usr/lib/pymodules/python2.7/openshot/transitions'
p11
sS'mlt_profile'
p12
NsS'is_modified'
p13
I01
sS'DESKTOP'
p14
S'/home/olli/Desktop'
p15
sS'LOCALE_DIR'
p16
S'/usr/lib/pymodules/python2.7/openshot/locale'
p17
sS'tabs'
p18
(lp19
(iclasses.sequences
sequence
p20
(dp21
S'enable_animated_playhead'
p22
I01
sS'scale'
p23
I8
sS'name'
p24
S'Oletuskuvasarja 1'
p25
sS'play_head'
p26
NsS'drag_y'
p27
F41.5
sS'play_head_position'
p28
F1542.4075333333333
sS'tick_pixels'
p29
I100
sS'tracks'
p30
(lp31
(iclasses.track
track
p32
(dp33
S'clips'
p34
(lp35
(iclasses.clip
clip
p36
(dp37
S'color'
p38
S'Gold'
p39
sS'moved'
p40
I01
sS'video_fade_out'
p41
I00
sS'keyframes'
p42
(dp43
S'start'
p44
(iclasses.keyframe
keyframe
p45
(dp46
S'frame'
p47
I0
sS'height'
p48
F100
sS'width'
p49
F100
sS'x'
F0
sS'y'
F0
sS'alpha'
p50
F1
sS'unique_id'
p51
S'e5ee65f0-e945-11e5-95d5-bc8ccdd91ea1'
p52
sbsS'end'
p53
(iclasses.keyframe
keyframe
p54
(dp55
g47
I-1
sg48
F100
sg49
F100
sS'x'
F0
sS'y'
F0
sg50
F1
sg51
S'e5ee6a96-e945-11e5-95d5-bc8ccdd91ea1'
p56
sbssS'video_fade_out_amount'
p57
F2
sS'audio_fade_out'
p58
I00
sS'reversed'
p59
I00
sS'speed'
p60
F1
sS'fill'
p61
I01
sS'audio_fade_in_amount'
p62
F2
sS'position_on_track'
p63
F0
sg27
F180.5
sS'drag_x'
p64
F134.5
sS'play_audio'
p65
I01
sS'audio_fade_out_amount'
p66
F2
sS'max_length'
p67
F238.17126666666667
sS'show_preview'
p68
I00
sS'valign'
p69
S'centre'
p70
sS'video_fade_in'
p71
I00
sS'audio_fade_in'
p72
I00
sS'request_show_properties'
p73
I00
sS'video_fade_in_amount'
p74
F2
sS'parent'
p75
g32
sS'composite'
p76
I01
sS'start_time'
p77
F0
sS'file_object'
p78
(iclasses.files
OpenShotFile
p79
(dp80
S'max_frames'
p81
F7137
sS'audio_codec'
p82
S'Vorbis'
p83
sS'audio_channels'
p84
I0
sS'thumb_location'
p85
S'/home/olli/Ty\xc3\xb6p\xc3\xb6yt\xc3\xa4/thumbnail/e3af315c-e945-11e5-95d5-bc8ccdd91ea1_flv_1.png'
p86
sS'name'
p87
S'/home/olli/Ty\xc3\xb6p\xc3\xb6yt\xc3\xa4/banana_song_full_song-sFukyIIM1XI_fmt43-orig.flv'
p88
sS'parent'
p89
NsS'file_type'
p90
S'video'
p91
sS'audio_frequency'
p92
I0
sg48
I360
sS'project'
p93
g1
sg49
I640
sS'length'
p94
F238.17126666666667
sS'fps'
p95
F29.970029970029969
sS'ttl'
p96
I1
sS'video_codec'
p97
S'On2 VP8'
p98
sS'videorate'
p99
(F29.970029970029969
I0
tp100
sS'label'
p101
S''
sg51
S'e3bc5fc6-e945-11e5-95d5-bc8ccdd91ea1'
p102
sbsS'distort'
p103
I00
sS'volume'
p104
F100
sS'effects'
p105
(lp106
sS'rotation'
p107
F0
sS'is_timeline_scrolling'
p108
I00
sS'thumb_location'
p109
S'/home/olli/Ty\xc3\xb6p\xc3\xb6yt\xc3\xa4/thumbnail/e3af315c-e945-11e5-95d5-bc8ccdd91ea1_flv_1.png'
p110
sS'name'
p111
S'minions_banana_song_full_song-sFukyIIM1XI_fmt43-orig.flv'
p112
sS'halign'
p113
g70
sS'play_video'
p114
I01
sS'end_time'
p115
F20.754066666666667
sS'unique_id'
p116
S'e5ee5d12-e945-11e5-95d5-bc8ccdd91ea1'
p117
sba(iclasses.clip
clip
p118
(dp119
g38
g39
sg40
I01
sg41
I00
sg42
(dp120
g44
(iclasses.keyframe
keyframe
p121
(dp122
g47
I0
sg48
F100
sg49
F100
sS'x'
F0
sS'y'
F0
sg50
F1
sg51
S'e210c6f4-e944-11e5-95d5-bc8ccdd91ea1'
p123
sbsg53
(iclasses.keyframe
keyframe
p124
(dp125
g47
I-1
sg48
F100
sg49
F100
sS'x'
F0
sS'y'
F0
sg50
F1
sg51
S'e210cd48-e944-11e5-95d5-bc8ccdd91ea1'
p126
sbssg57
F2
sg58
I00
sg59
I00
sg60
F1
sg61
I01
sg62
F2
sg63
F21.900600000000001
sg27
F42.5
sg64
F167.74250000000001
sg65
I01
sg66
F2
sg67
F140.8407
sS'show_preview'
p127
I00
sg69
g70
sg71
I00
sg72
I00
sg73
I00
sg74
F2
sg75
g32
sg76
I01
sg77
F0
sg78
(iclasses.files
OpenShotFile
p128
(dp129
g81
F4220
sg82
S'AAC (Advanced Audio Coding)'
p130
sg84
I0
sg85
S'/home/olli/Ty\xc3\xb6p\xc3\xb6yt\xc3\xa4/thumbnail/df223fb8-e944-11e5-95d5-bc8ccdd91ea1_mp4_1.png'
p131
sg87
S'/home/olli/Ty\xc3\xb6p\xc3\xb6yt\xc3\xa4/taparikollinen_-dN-jralLzrc_fmt135-orig.mp4'
p132
sg89
Nsg90
g91
sg92
I0
sg48
I480
sg93
g1
sg49
I854
sg94
F140.8407
sg95
F29.970029970029969
sg96
I1
sg97
S'H.264 / AVC / MPEG-4 AVC / MPEG-4 part 10'
p133
sg99
(F29.970029970029969
I0
tp134
sg101
S''
sg51
S'df4ae6ca-e944-11e5-95d5-bc8ccdd91ea1'
p135
sbsg103
I00
sg104
F100
sg105
(lp136
sg107
F0
sg108
I00
sg109
S'/home/olli/Ty\xc3\xb6p\xc3\xb6yt\xc3\xa4/thumbnail/df223fb8-e944-11e5-95d5-bc8ccdd91ea1_mp4_1.png'
p137
sg111
S'taparikollinen_-dN-jralLzrc_fmt135-orig.mp4'
p138
sg113
g70
sg114
I01
sg115
F59.659599999999998
sg116
S'e210bb82-e944-11e5-95d5-bc8ccdd91ea1'
p139
sba(iclasses.clip
clip
p140
(dp141
g38
g39
sg40
I00
sg41
I00
sg42
(dp142
g44
(iclasses.keyframe
keyframe
p143
(dp144
g47
I0
sg48
F100
sg49
F100
sS'x'
F0
sS'y'
F0
sg50
F1
sg51
g123
sbsg53
(iclasses.keyframe
keyframe
p145
(dp146
g47
I-1
sg48
F100
sg49
F100
sS'x'
F0
sS'y'
F0
sg50
F1
sg51
g126
sbssg57
F2
sg58
I00
sg59
I00
sg60
F1
sg61
I01
sg62
F2
sg63
F59.659599999999998
sg27
F38.5
sg64
F747.5
sg65
I01
sg66
F2
sg67
F140.8407
sg69
g70
sg71
I00
sg72
I00
sg73
I00
sg74
F2
sg75
g32
sg76
I01
sg77
F59.659599999999998
sg78
g128
sg103
I00
sg104
F100
sg105
(lp147
sg107
F0
sg108
I00
sg109
S'/home/olli/Ty\xc3\xb6p\xc3\xb6yt\xc3\xa4/thumbnail/taparikollinen_-dN-jralLzrc_fmt135-orig_mp4_3.png'
p148
sg111
g138
sg113
g70
sg114
I01
sg115
F59.659599999999998
sg116
S'3e1bdf56-e945-11e5-95d5-bc8ccdd91ea1'
p149
sba(iclasses.clip
clip
p150
(dp151
g38
g39
sg40
I00
sg41
I00
sg42
(dp152
g44
(iclasses.keyframe
keyframe
p153
(dp154
g47
I0
sg48
F100
sg49
F100
sS'x'
F0
sS'y'
F0
sg50
F1
sg51
g123
sbsg53
(iclasses.keyframe
keyframe
p155
(dp156
g47
I-1
sg48
F100
sg49
F100
sS'x'
F0
sS'y'
F0
sg50
F1
sg51
g126
sbssg57
F2
sg58
I00
sg59
I00
sg60
F1
sg61
I01
sg62
F2
sg63
F59.659599999999998
sg27
F42.5
sg64
F749.5
sg65
I01
sg66
F2
sg67
F140.8407
sg69
g70
sg71
I00
sg72
I00
sg73
I00
sg74
F2
sg75
g32
sg76
I01
sg77
F59.659599999999998
sg78
g128
sg103
I00
sg104
F100
sg105
(lp157
sg107
F0
sg108
I00
sg109
S'/home/olli/Ty\xc3\xb6p\xc3\xb6yt\xc3\xa4/thumbnail/taparikollinen_-dN-jralLzrc_fmt135-orig_mp4_4.png'
p158
sg111
g138
sg113
g70
sg114
I01
sg115
F59.659599999999998
sg116
S'3e8768de-e945-11e5-95d5-bc8ccdd91ea1'
p159
sba(iclasses.clip
clip
p160
(dp161
g38
g39
sg40
I00
sg41
I00
sg42
(dp162
g44
(iclasses.keyframe
keyframe
p163
(dp164
g47
I0
sg48
F100
sg49
F100
sS'x'
F0
sS'y'
F0
sg50
F1
sg51
g123
sbsg53
(iclasses.keyframe
keyframe
p165
(dp166
g47
I-1
sg48
F100
sg49
F100
sS'x'
F0
sS'y'
F0
sg50
F1
sg51
g126
sbssg57
F2
sg58
I00
sg59
I00
sg60
F1
sg61
I01
sg62
F2
sg63
F59.659599999999998
sg27
F44.5
sg64
F755.5
sg65
I01
sg66
F2
sg67
F140.8407
sg69
g70
sg71
I00
sg72
I00
sg73
I00
sg74
F2
sg75
g32
sg76
I01
sg77
F59.659599999999998
sg78
g128
sg103
I00
sg104
F100
sg105
(lp167
sg107
F0
sg108
I00
sg109
S'/home/olli/Ty\xc3\xb6p\xc3\xb6yt\xc3\xa4/thumbnail/taparikollinen_-dN-jralLzrc_fmt135-orig_mp4_5.png'
p168
sg111
g138
sg113
g70
sg114
I01
sg115
F59.659599999999998
sg116
S'4046c1a6-e945-11e5-95d5-bc8ccdd91ea1'
p169
sba(iclasses.clip
clip
p170
(dp171
g38
g39
sg40
I00
sg41
I00
sg42
(dp172
g44
(iclasses.keyframe
keyframe
p173
(dp174
g47
I0
sg48
F100
sg49
F100
sS'x'
F0
sS'y'
F0
sg50
F1
sg51
g123
sbsg53
(iclasses.keyframe
keyframe
p175
(dp176
g47
I-1
sg48
F100
sg49
F100
sS'x'
F0
sS'y'
F0
sg50
F1
sg51
g126
sbssg57
F2
sg58
I00
sg59
I00
sg60
F1
sg61
I01
sg62
F2
sg63
F59.659599999999998
sg27
F41.5
sg64
F747.5
sg65
I01
sg66
F2
sg67
F140.8407
sg69
g70
sg71
I00
sg72
I00
sg73
I00
sg74
F2
sg75
g32
sg76
I01
sg77
F59.659599999999998
sg78
g128
sg103
I00
sg104
F100
sg105
(lp177
sg107
F0
sg108
I00
sg109
S'/home/olli/Ty\xc3\xb6p\xc3\xb6yt\xc3\xa4/thumbnail/taparikollinen_-dN-jralLzrc_fmt135-orig_mp4_6.png'
p178
sg111
g138
sg113
g70
sg114
I01
sg115
F59.659599999999998
sg116
S'40b5f166-e945-11e5-95d5-bc8ccdd91ea1'
p179
sba(iclasses.clip
clip
p180
(dp181
g38
g39
sg40
I00
sg41
I00
sg42
(dp182
g44
(iclasses.keyframe
keyframe
p183
(dp184
g47
I0
sg48
F100
sg49
F100
sS'x'
F0
sS'y'
F0
sg50
F1
sg51
g123
sbsg53
(iclasses.keyframe
keyframe
p185
(dp186
g47
I-1
sg48
F100
sg49
F100
sS'x'
F0
sS'y'
F0
sg50
F1
sg51
g126
sbssg57
F2
sg58
I00
sg59
I00
sg60
F1
sg61
I01
sg62
F2
sg63
F59.659599999999998
sg27
F0
sg64
F0
sg65
I01
sg66
F2
sg67
F140.8407
sg69
g70
sg71
I00
sg72
I00
sg74
F2
sg75
g32
sg76
I01
sg77
F59.659599999999998
sg78
g128
sg103
I00
sg104
F100
sg105
(lp187
sg107
F0
sg108
I00
sg109
S'/home/olli/Ty\xc3\xb6p\xc3\xb6yt\xc3\xa4/thumbnail/taparikollinen_-dN-jralLzrc_fmt135-orig_mp4_7.png'
p188
sg111
g138
sg113
g70
sg114
I01
sg115
F59.659599999999998
sg116
S'447c9462-e945-11e5-95d5-bc8ccdd91ea1'
p189
sba(iclasses.clip
clip
p190
(dp191
S'color'
p192
S'Gold'
p193
sS'moved'
p194
I00
sS'video_fade_out'
p195
I00
sS'keyframes'
p196
(dp197
S'start'
p198
(iclasses.keyframe
keyframe
p199
(dp200
g47
I0
sg48
F100
sg49
F100
sS'x'
F0
sS'y'
F0
sg50
F1
sg51
S'8f24d7e2-eb96-11e5-9645-bc8ccdd91ea1'
p201
sbsS'end'
p202
(iclasses.keyframe
keyframe
p203
(dp204
g47
I-1
sg48
F100
sg49
F100
sS'x'
F0
sS'y'
F0
sg50
F1
sg51
S'8f24dfee-eb96-11e5-9645-bc8ccdd91ea1'
p205
sbssS'video_fade_out_amount'
p206
F2
sS'audio_fade_out'
p207
I00
sS'reversed'
p208
I00
sS'speed'
p209
F1
sS'fill'
p210
I01
sS'audio_fade_in_amount'
p211
F2
sS'position_on_track'
p212
F81.599999999999994
sS'drag_y'
p213
F0
sS'drag_x'
p214
F0
sS'play_audio'
p215
I01
sS'audio_fade_out_amount'
p216
F2
sS'max_length'
p217
F300
sS'valign'
p218
S'centre'
p219
sS'video_fade_in'
p220
I00
sS'audio_fade_in'
p221
I00
sS'video_fade_in_amount'
p222
F2
sS'parent'
p223
g32
sS'composite'
p224
I01
sS'start_time'
p225
F0
sS'file_object'
p226
(iclasses.files
OpenShotFile
p227
(dp228
g81
F14999
sg82
S''
sg84
I0
sg85
S'/home/olli/Ty\xc3\xb6p\xc3\xb6yt\xc3\xa4/thumbnail/828b7e5a-eb96-11e5-9645-bc8ccdd91ea1_png_1.png'
p229
sg87
S'/home/olli/Kuvat/Valinta_002.png'
p230
sg89
Nsg90
S'image'
p231
sg92
I0
sg48
I485
sg93
g1
sg49
I639
sg94
F300
sg95
F29.970029970029969
sg96
I1
sg97
S''
sg99
(F29.970029970029969
I0
tp232
sg101
S''
sg51
S'829803d2-eb96-11e5-9645-bc8ccdd91ea1'
p233
sbsS'distort'
p234
I00
sS'volume'
p235
F100
sS'effects'
p236
(lp237
(iclasses.effect
effect
p238
(dp239
S'unique_id'
p240
S'ca5e4e32-eb9c-11e5-ae7d-bc8ccdd91ea1'
p241
sS'paramaters'
p242
(lp243
(dp244
Vstart
p245
V0.5
p246
sasS'audio_effect'
p247
S''
sS'service'
p248
S'panner'
p249
sba(iclasses.effect
effect
p250
(dp251
g240
S'7e81caec-eb9d-11e5-ae7d-bc8ccdd91ea1'
p252
sg242
(lp253
(dp254
Vgain
p255
V10
p256
sa(dp257
Vfrequency
p258
V5000
p259
sasg247
S'treble'
p260
sg248
S'sox:treble'
p261
sbasS'rotation'
p262
F0
sS'is_timeline_scrolling'
p263
I00
sS'thumb_location'
p264
S'/home/olli/Ty\xc3\xb6p\xc3\xb6yt\xc3\xa4/thumbnail/828b7e5a-eb96-11e5-9645-bc8ccdd91ea1_png_1.png'
p265
sS'name'
p266
S'Valinta_002.png'
p267
sS'halign'
p268
g219
sS'play_video'
p269
I01
sS'end_time'
p270
F7
sS'unique_id'
p271
S'8f24cb26-eb96-11e5-9645-bc8ccdd91ea1'
p272
sba(iclasses.clip
clip
p273
(dp274
g192
g193
sg194
I00
sg195
I00
sg196
(dp275
g198
(iclasses.keyframe
keyframe
p276
(dp277
g47
I0
sg48
F100
sg49
F100
sS'x'
F0
sS'y'
F0
sg50
F1
sg51
S'93109ada-eb96-11e5-9645-bc8ccdd91ea1'
p278
sbsg202
(iclasses.keyframe
keyframe
p279
(dp280
g47
I-1
sg48
F100
sg49
F100
sS'x'
F0
sS'y'
F0
sg50
F1
sg51
S'93109f8a-eb96-11e5-9645-bc8ccdd91ea1'
p281
sbssg206
F2
sg207
I00
sg208
I00
sg209
F1
sg210
I01
sg211
F2
sg212
F88.599999999999994
sg213
F24.5
sg214
F1140.5
sg215
I01
sg216
F2
sg217
F300
sg68
I00
sg218
S'centre'
p282
sg220
I00
sg221
I00
sS'request_show_properties'
p283
I00
sg222
F2
sg223
g32
sg224
I01
sg225
F0
sg226
(iclasses.files
OpenShotFile
p284
(dp285
g81
F14999
sg82
S''
sg84
I0
sg85
S'/home/olli/Ty\xc3\xb6p\xc3\xb6yt\xc3\xa4/thumbnail/88cbbd0c-eb96-11e5-9645-bc8ccdd91ea1_png_1.png'
p286
sg87
S'/home/olli/Kuvat/Valinta_003.png'
p287
sg89
Nsg90
g231
sg92
I0
sg48
I478
sg93
g1
sg49
I643
sg94
F300
sg95
F29.970029970029969
sg96
I1
sg97
S''
sg99
(F29.970029970029969
I0
tp288
sg101
S''
sg51
S'88d671ca-eb96-11e5-9645-bc8ccdd91ea1'
p289
sbsg234
I00
sg235
F100
sg236
(lp290
sg262
F0
sg263
I00
sg264
S'/home/olli/Ty\xc3\xb6p\xc3\xb6yt\xc3\xa4/thumbnail/88cbbd0c-eb96-11e5-9645-bc8ccdd91ea1_png_1.png'
p291
sg266
S'Valinta_003.png'
p292
sg268
S'centre'
p293
sg269
I01
sg270
F3
sg271
S'9310929c-eb96-11e5-9645-bc8ccdd91ea1'
p294
sba(iclasses.clip
clip
p295
(dp296
g192
g193
sg194
I01
sg195
I00
sg196
(dp297
g198
(iclasses.keyframe
keyframe
p298
(dp299
g47
I0
sg48
F100
sg49
F100
sS'x'
F0
sS'y'
F0
sg50
F1
sg51
S'9d8379c4-eb96-11e5-9645-bc8ccdd91ea1'
p300
sbsg202
(iclasses.keyframe
keyframe
p301
(dp302
g47
I-1
sg48
F100
sg49
F100
sS'x'
F0
sS'y'
F0
sg50
F1
sg51
S'9d837f3c-eb96-11e5-9645-bc8ccdd91ea1'
p303
sbssg206
F2
sg207
I00
sg208
I00
sg209
F1
sg210
I01
sg211
F2
sg212
F91.599999999999994
sg213
F37.5
sg214
F1374.5
sg215
I01
sg216
F2
sg217
F300
sS'show_preview'
p304
I00
sg218
S'centre'
p305
sg220
I00
sg221
I00
sS'request_show_properties'
p306
I00
sg222
F2
sg223
g32
sg224
I01
sg225
F0
sg226
g284
sg234
I00
sg235
F100
sg236
(lp307
sg262
F0
sg263
I00
sg264
g291
sg266
S'Valinta_003.png'
p308
sg268
S'centre'
p309
sg269
I01
sg270
F90
sg271
S'9d8370a0-eb96-11e5-9645-bc8ccdd91ea1'
p310
sba(iclasses.clip
clip
p311
(dp312
S'color'
p313
S'Gold'
p314
sS'moved'
p315
I01
sS'video_fade_out'
p316
I00
sS'keyframes'
p317
(dp318
S'start'
p319
(iclasses.keyframe
keyframe
p320
(dp321
g47
I0
sg48
F100
sg49
F100
sS'x'
F0
sS'y'
F0
sg50
F1
sg51
S'15dbb8ee-eb9e-11e5-ae7d-bc8ccdd91ea1'
p322
sbsS'end'
p323
(iclasses.keyframe
keyframe
p324
(dp325
g47
I-1
sg48
F100
sg49
F100
sS'x'
F0
sS'y'
F0
sg50
F1
sg51
S'15dbbfe2-eb9e-11e5-ae7d-bc8ccdd91ea1'
p326
sbssS'video_fade_out_amount'
p327
F2
sS'audio_fade_out'
p328
I00
sS'reversed'
p329
I00
sS'speed'
p330
F1
sS'fill'
p331
I01
sS'audio_fade_in_amount'
p332
F2
sS'position_on_track'
p333
F181.59999999999999
sS'drag_y'
p334
F30.075000000000003
sS'drag_x'
p335
F1394.075
sS'play_audio'
p336
I01
sS'audio_fade_out_amount'
p337
F2
sS'max_length'
p338
F300
sg304
I00
sS'valign'
p339
S'centre'
p340
sS'video_fade_in'
p341
I00
sS'audio_fade_in'
p342
I00
sg306
I00
sS'video_fade_in_amount'
p343
F2
sS'parent'
p344
g32
sS'composite'
p345
I01
sS'start_time'
p346
F0
sS'file_object'
p347
(iclasses.files
OpenShotFile
p348
(dp349
g81
F14999
sg82
S''
sg84
I0
sg85
S'/home/olli/Ty\xc3\xb6p\xc3\xb6yt\xc3\xa4/thumbnail/ab5ced18-eb9c-11e5-ae7d-bc8ccdd91ea1_png_1.png'
p350
sg87
S'/home/olli/Kuvat/Valinta_005.png'
p351
sg89
Nsg90
S'image'
p352
sg92
I0
sg48
I461
sg93
g1
sg49
I569
sg94
F300
sg95
F29.970029970029969
sg96
I1
sg97
S''
sg99
(F29.970029970029969
I0
tp353
sg101
S''
sg51
S'ab69a986-eb9c-11e5-ae7d-bc8ccdd91ea1'
p354
sbsS'distort'
p355
I00
sS'volume'
p356
F100
sS'effects'
p357
(lp358
sS'rotation'
p359
F0
sS'is_timeline_scrolling'
p360
I00
sS'thumb_location'
p361
S'/home/olli/Ty\xc3\xb6p\xc3\xb6yt\xc3\xa4/thumbnail/ab5ced18-eb9c-11e5-ae7d-bc8ccdd91ea1_png_1.png'
p362
sS'name'
p363
S'Valinta_005.png'
p364
sS'halign'
p365
S'centre'
p366
sS'play_video'
p367
I01
sS'end_time'
p368
F3
sg240
S'15dbaf70-eb9e-11e5-ae7d-bc8ccdd91ea1'
p369
sba(iclasses.clip
clip
p370
(dp371
g313
g314
sg315
I00
sg316
I00
sg317
(dp372
g319
(iclasses.keyframe
keyframe
p373
(dp374
g47
I0
sg48
F100
sg49
F100
sS'x'
F0
sS'y'
F0
sg50
F1
sg51
S'1f642252-eb9e-11e5-ae7d-bc8ccdd91ea1'
p375
sbsg323
(iclasses.keyframe
keyframe
p376
(dp377
g47
I-1
sg48
F100
sg49
F100
sS'x'
F0
sS'y'
F0
sg50
F1
sg51
S'1f642bc6-eb9e-11e5-ae7d-bc8ccdd91ea1'
p378
sbssg327
F2
sg328
I00
sg329
I00
sg330
F1
sg331
I01
sg332
F2
sg333
F184.59999999999999
sg334
F50.075000000000003
sg335
F1496.075
sg336
I01
sg337
F2
sg338
F300
sg304
I00
sg339
S'centre'
p379
sg341
I00
sg342
I00
sg306
I00
sg343
F2
sg344
g32
sg345
I01
sg346
F0
sg347
g348
sg355
I00
sg356
F100
sg357
(lp380
sg359
F0
sg360
I00
sg361
S'/home/olli/Ty\xc3\xb6p\xc3\xb6yt\xc3\xa4/thumbnail/ab5ced18-eb9c-11e5-ae7d-bc8ccdd91ea1_png_1.png'
p381
sg363
S'Valinta_005.png'
p382
sg365
S'centre'
p383
sg367
I01
sg368
F90
sg240
S'1f641262-eb9e-11e5-ae7d-bc8ccdd91ea1'
p384
sba(iclasses.clip
clip
p385
(dp386
S'color'
p387
S'Gold'
p388
sS'moved'
p389
I01
sS'video_fade_out'
p390
I00
sS'keyframes'
p391
(dp392
S'start'
p393
(iclasses.keyframe
keyframe
p394
(dp395
g47
I0
sg48
F100
sg49
F100
sS'x'
F0
sS'y'
F0
sg50
F1
sg51
S'a7dc4820-eb9f-11e5-b25d-bc8ccdd91ea1'
p396
sbsS'end'
p397
(iclasses.keyframe
keyframe
p398
(dp399
g47
I-1
sg48
F100
sg49
F100
sS'x'
F0
sS'y'
F0
sg50
F1
sg51
S'a7dc4c3a-eb9f-11e5-b25d-bc8ccdd91ea1'
p400
sbssS'video_fade_out_amount'
p401
F2
sS'audio_fade_out'
p402
I00
sS'reversed'
p403
I00
sS'speed'
p404
F1
sS'fill'
p405
I01
sS'audio_fade_in_amount'
p406
F2
sS'position_on_track'
p407
F274.60000000000002
sS'drag_y'
p408
F110.075
sS'drag_x'
p409
F2027.5
sS'play_audio'
p410
I01
sS'audio_fade_out_amount'
p411
F2
sS'max_length'
p412
F300
sg304
I00
sS'valign'
p413
S'centre'
p414
sS'video_fade_in'
p415
I00
sS'audio_fade_in'
p416
I00
sg306
I00
sS'video_fade_in_amount'
p417
F2
sS'parent'
p418
g32
sS'composite'
p419
I01
sS'start_time'
p420
F0
sS'file_object'
p421
(iclasses.files
OpenShotFile
p422
(dp423
g81
F14999
sg82
S''
sg84
I0
sg85
S'/home/olli/Ty\xc3\xb6p\xc3\xb6yt\xc3\xa4/thumbnail/84e057cc-eb9e-11e5-ae7d-bc8ccdd91ea1_png_1.png'
p424
sg87
S'/home/olli/Kuvat/Valinta_006.png'
p425
sg89
Nsg90
g352
sg92
I0
sg48
I445
sg93
g1
sg49
I624
sg94
F300
sg95
F29.970029970029969
sg96
I1
sg97
S''
sg99
(F29.970029970029969
I0
tp426
sg101
S''
sg51
S'84e845d6-eb9e-11e5-ae7d-bc8ccdd91ea1'
p427
sbsS'distort'
p428
I00
sS'volume'
p429
F100
sS'effects'
p430
(lp431
sS'rotation'
p432
F0
sS'is_timeline_scrolling'
p433
I00
sS'thumb_location'
p434
S'/home/olli/Ty\xc3\xb6p\xc3\xb6yt\xc3\xa4/thumbnail/84e057cc-eb9e-11e5-ae7d-bc8ccdd91ea1_png_1.png'
p435
sS'name'
p436
S'Valinta_006.png'
p437
sS'halign'
p438
S'centre'
p439
sS'play_video'
p440
I01
sS'end_time'
p441
F3
sS'unique_id'
p442
S'a7dc3fd8-eb9f-11e5-b25d-bc8ccdd91ea1'
p443
sba(iclasses.clip
clip
p444
(dp445
g387
g388
sg389
I00
sg390
I00
sg391
(dp446
g393
(iclasses.keyframe
keyframe
p447
(dp448
g47
I0
sg48
F100
sg49
F100
sS'x'
F0
sS'y'
F0
sg50
F1
sg51
S'a9f0622c-eb9f-11e5-b25d-bc8ccdd91ea1'
p449
sbsg397
(iclasses.keyframe
keyframe
p450
(dp451
g47
I-1
sg48
F100
sg49
F100
sS'x'
F0
sS'y'
F0
sg50
F1
sg51
S'a9f06650-eb9f-11e5-b25d-bc8ccdd91ea1'
p452
sbssg401
F2
sg402
I00
sg403
I00
sg404
F1
sg405
I01
sg406
F2
sg407
F277.60000000000002
sg408
F51.5
sg409
F3670.5
sg410
I01
sg411
F2
sg412
F300
sg304
I00
sg413
S'centre'
p453
sg415
I00
sg416
I00
sg306
I00
sg417
F2
sg418
g32
sg419
I01
sg420
F0
sg421
g422
sg428
I00
sg429
F100
sg430
(lp454
sg432
F0
sg433
I00
sg434
S'/home/olli/Ty\xc3\xb6p\xc3\xb6yt\xc3\xa4/thumbnail/84e057cc-eb9e-11e5-ae7d-bc8ccdd91ea1_png_1.png'
p455
sg436
S'Valinta_006.png'
p456
sg438
S'centre'
p457
sg440
I01
sg441
F90
sg442
S'a9f059e4-eb9f-11e5-b25d-bc8ccdd91ea1'
p458
sba(iclasses.clip
clip
p459
(dp460
g387
g388
sg389
I01
sg390
I00
sg391
(dp461
g393
(iclasses.keyframe
keyframe
p462
(dp463
g47
I0
sg48
F100
sg49
F100
sS'x'
F0
sS'y'
F0
sg50
F1
sg51
S'd0c5e8c2-eb9f-11e5-b25d-bc8ccdd91ea1'
p464
sbsg397
(iclasses.keyframe
keyframe
p465
(dp466
g47
I-1
sg48
F100
sg49
F100
sS'x'
F0
sS'y'
F0
sg50
F1
sg51
S'd0c5f24a-eb9f-11e5-b25d-bc8ccdd91ea1'
p467
sbssg401
F2
sg402
I00
sg403
I00
sg404
F1
sg405
I01
sg406
F2
sg407
F368.97199999999998
sg408
F111.5
sg409
F2287.5
sg410
I01
sg411
F2
sg412
F221.05416666666667
sS'show_preview'
p468
I00
sg413
S'centre'
p469
sg415
I00
sg416
I00
sS'request_show_properties'
p470
I00
sg417
F2
sg418
g32
sg419
I01
sg420
F62.04740000000001
sg421
(iclasses.files
OpenShotFile
p471
(dp472
g81
F6624
sg82
S'Vorbis'
p473
sg84
I0
sg85
S'/home/olli/Ty\xc3\xb6p\xc3\xb6yt\xc3\xa4/thumbnail/ce35fe8a-eb9f-11e5-b25d-bc8ccdd91ea1_flv_1.png'
p474
sg87
S'/home/olli/Ty\xc3\xb6p\xc3\xb6yt\xc3\xa4/hercules_h-SkM0tzUwGXg_fmt43-orig.flv'
p475
sg89
Nsg90
S'video'
p476
sg92
I0
sg48
I360
sg93
g1
sg49
I640
sg94
F221.05416666666667
sg95
F29.970029970029969
sg96
I1
sg97
S'On2 VP8'
p477
sg99
(F29.970029970029969
I0
tp478
sg101
S''
sg51
S'ce45f5a6-eb9f-11e5-b25d-bc8ccdd91ea1'
p479
sbsg428
I00
sg429
F100
sg430
(lp480
sg432
F0
sg433
I00
sg434
S'/home/olli/Ty\xc3\xb6p\xc3\xb6yt\xc3\xa4/thumbnail/hercules_h-SkM0tzUwGXg_fmt43-orig_flv_3.png'
p481
sg436
S'hercules_-_hades_in_the_underworld_h-SkM0tzUwGXg_fmt43-orig.flv'
p482
sg438
g469
sg440
I01
sg441
F82.227266666666708
sg442
S'e6103714-eb9f-11e5-b25d-bc8ccdd91ea1'
p483
sba(iclasses.clip
clip
p484
(dp485
S'color'
p486
g388
sS'moved'
p487
I01
sS'video_fade_out'
p488
I00
sS'keyframes'
p489
(dp490
g393
(iclasses.keyframe
keyframe
p491
(dp492
g47
I0
sg48
F100
sg49
F100
sS'x'
F0
sS'y'
F0
sg50
F1
sg51
g464
sbsg397
(iclasses.keyframe
keyframe
p493
(dp494
g47
I-1
sg48
F100
sg49
F100
sS'x'
F0
sS'y'
F0
sg50
F1
sg51
g467
sbssS'video_fade_out_amount'
p495
F2
sS'audio_fade_out'
p496
I00
sS'reversed'
p497
I00
sS'speed'
p498
F1
sS'fill'
p499
I01
sS'audio_fade_in_amount'
p500
F2
sS'position_on_track'
p501
F389.15186666666671
sS'drag_y'
p502
F114.075
sS'drag_x'
p503
F2535.5
sS'play_audio'
p504
I00
sS'audio_fade_out_amount'
p505
F2
sS'max_length'
p506
F221.05416666666667
sS'show_preview'
p507
I00
sS'valign'
p508
g469
sS'video_fade_in'
p509
I00
sS'audio_fade_in'
p510
I00
sS'request_show_properties'
p511
I00
sS'video_fade_in_amount'
p512
F2
sS'parent'
p513
g32
sS'composite'
p514
I01
sS'start_time'
p515
F82.227266666666708
sS'file_object'
p516
g471
sS'distort'
p517
I00
sS'volume'
p518
F100
sS'effects'
p519
(lp520
sS'rotation'
p521
F0
sS'is_timeline_scrolling'
p522
I00
sS'thumb_location'
p523
S'/home/olli/Ty\xc3\xb6p\xc3\xb6yt\xc3\xa4/thumbnail/hercules-SkM0tzUwGXg_fmt43-orig_flv_6.png'
p524
sS'name'
p525
g482
sS'halign'
p526
g469
sS'play_video'
p527
I01
sS'end_time'
p528
F83.877333333333354
sS'unique_id'
p529
S'ba0ec490-eba0-11e5-9d07-bc8ccdd91ea1'
p530
sba(iclasses.clip
clip
p531
(dp532
g486
g388
sg487
I01
sg488
I00
sg489
(dp533
g393
(iclasses.keyframe
keyframe
p534
(dp535
g47
I0
sg48
F100
sg49
F100
sS'x'
F0
sS'y'
F0
sg50
F1
sg51
g464
sbsg397
(iclasses.keyframe
keyframe
p536
(dp537
g47
I-1
sg48
F100
sg49
F100
sS'x'
F0
sS'y'
F0
sg50
F1
sg51
g467
sbssg495
F2
sg496
I00
sg497
I00
sg498
F1
sg499
I01
sg500
F2
sg501
F390.80193333333341
sg502
F92.075000000000003
sg503
F2570
sg504
I01
sg505
F2
sg506
F221.05416666666667
sg507
I00
sg508
g469
sg509
I00
sg510
I00
sg511
I00
sg512
F2
sg513
g32
sg514
I01
sg515
F83.877333333333354
sg516
g471
sg517
I00
sg518
F100
sg519
(lp538
sg521
F0
sg522
I00
sg523
S'/home/olli/Ty\xc3\xb6p\xc3\xb6yt\xc3\xa4/thumbnail/hercules-SkM0tzUwGXg_fmt43-orig_flv_7.png'
p539
sg525
g482
sg526
g469
sg527
I01
sg528
F86.357100000000003
sg529
S'd0327686-eba0-11e5-9d07-bc8ccdd91ea1'
p540
sba(iclasses.clip
clip
p541
(dp542
S'color'
p543
S'Gold'
p544
sS'moved'
p545
I01
sS'video_fade_out'
p546
I00
sS'keyframes'
p547
(dp548
S'start'
p549
(iclasses.keyframe
keyframe
p550
(dp551
g47
I0
sg48
F100
sg49
F100
sS'x'
F0
sS'y'
F0
sg50
F1
sg51
S'f92cfdd2-eba4-11e5-90d2-bc8ccdd91ea1'
p552
sbsS'end'
p553
(iclasses.keyframe
keyframe
p554
(dp555
g47
I-1
sg48
F100
sg49
F100
sS'x'
F0
sS'y'
F0
sg50
F1
sg51
S'f92d03c2-eba4-11e5-90d2-bc8ccdd91ea1'
p556
sbssS'video_fade_out_amount'
p557
F2
sS'audio_fade_out'
p558
I00
sS'reversed'
p559
I00
sS'speed'
p560
F1
sS'fill'
p561
I01
sS'audio_fade_in_amount'
p562
F2
sS'position_on_track'
p563
F393.28170000000006
sS'drag_y'
p564
F105.075
sS'drag_x'
p565
F2952.5
sS'play_audio'
p566
I01
sS'audio_fade_out_amount'
p567
F2
sS'max_length'
p568
F300
sg304
I00
sS'valign'
p569
S'centre'
p570
sS'video_fade_in'
p571
I00
sS'audio_fade_in'
p572
I00
sg306
I00
sS'video_fade_in_amount'
p573
F2
sS'parent'
p574
g32
sS'composite'
p575
I01
sS'start_time'
p576
F0
sS'file_object'
p577
(iclasses.files
OpenShotFile
p578
(dp579
g81
F14999
sg82
S''
sg84
I0
sg85
S'/home/olli/Ty\xc3\xb6p\xc3\xb6yt\xc3\xa4/thumbnail/c795b386-eb9f-11e5-b25d-bc8ccdd91ea1_png_1.png'
p580
sg87
S'/home/olli/Kuvat/Valinta_007.png'
p581
sg89
Nsg90
S'image'
p582
sg92
I0
sg48
I398
sg93
g1
sg49
I588
sg94
F300
sg95
F29.970029970029969
sg96
I1
sg97
S''
sg99
(F29.970029970029969
I0
tp583
sg101
S''
sg51
S'c79ec322-eb9f-11e5-b25d-bc8ccdd91ea1'
p584
sbsS'distort'
p585
I00
sS'volume'
p586
F100
sS'effects'
p587
(lp588
sS'rotation'
p589
F0
sS'is_timeline_scrolling'
p590
I00
sS'thumb_location'
p591
S'/home/olli/Ty\xc3\xb6p\xc3\xb6yt\xc3\xa4/thumbnail/c795b386-eb9f-11e5-b25d-bc8ccdd91ea1_png_1.png'
p592
sS'name'
p593
S'Valinta_007.png'
p594
sS'halign'
p595
S'centre'
p596
sS'play_video'
p597
I01
sS'end_time'
p598
F3
sS'unique_id'
p599
S'f92ceca2-eba4-11e5-90d2-bc8ccdd91ea1'
p600
sba(iclasses.clip
clip
p601
(dp602
g543
g544
sg545
I00
sg546
I00
sg547
(dp603
g549
(iclasses.keyframe
keyframe
p604
(dp605
g47
I0
sg48
F100
sg49
F100
sS'x'
F0
sS'y'
F0
sg50
F1
sg51
S'fc3db048-eba4-11e5-90d2-bc8ccdd91ea1'
p606
sbsg553
(iclasses.keyframe
keyframe
p607
(dp608
g47
I-1
sg48
F100
sg49
F100
sS'x'
F0
sS'y'
F0
sg50
F1
sg51
S'fc3db9c6-eba4-11e5-90d2-bc8ccdd91ea1'
p609
sbssg557
F2
sg558
I00
sg559
I00
sg560
F1
sg561
I01
sg562
F2
sg563
F396.28170000000006
sg564
F53.5
sg565
F5140.5
sg566
I01
sg567
F2
sg568
F300
sg304
I00
sg569
S'centre'
p610
sg571
I00
sg572
I00
sg306
I00
sg573
F2
sg574
g32
sg575
I01
sg576
F0
sg577
g578
sg585
I00
sg586
F100
sg587
(lp611
sg589
F0
sg590
I00
sg591
S'/home/olli/Ty\xc3\xb6p\xc3\xb6yt\xc3\xa4/thumbnail/c795b386-eb9f-11e5-b25d-bc8ccdd91ea1_png_1.png'
p612
sg593
S'Valinta_007.png'
p613
sg595
S'centre'
p614
sg597
I01
sg598
F90
sg599
S'fc3da116-eba4-11e5-90d2-bc8ccdd91ea1'
p615
sba(iclasses.clip
clip
p616
(dp617
g543
g544
sg545
I01
sg546
I00
sg547
(dp618
g549
(iclasses.keyframe
keyframe
p619
(dp620
g47
I0
sg48
F100
sg49
F100
sS'x'
F0
sS'y'
F0
sg50
F1
sg51
S'4e553edc-eba5-11e5-90d2-bc8ccdd91ea1'
p621
sbsg553
(iclasses.keyframe
keyframe
p622
(dp623
g47
I-1
sg48
F100
sg49
F100
sS'x'
F0
sS'y'
F0
sg50
F1
sg51
S'4e554864-eba5-11e5-90d2-bc8ccdd91ea1'
p624
sbssg557
F2
sg558
I00
sg559
I00
sg560
F1
sg561
I01
sg562
F2
sg563
F486.28170000000006
sg564
F104.075
sg565
F3012.2245833333336
sg566
I01
sg567
F2
sg568
F300
sg304
I00
sg569
S'centre'
p625
sg571
I00
sg572
I00
sg306
I00
sg573
F2
sg574
g32
sg575
I01
sg576
F0
sg577
(iclasses.files
OpenShotFile
p626
(dp627
g81
F14999
sg82
S''
sg84
I0
sg85
S'/home/olli/Ty\xc3\xb6p\xc3\xb6yt\xc3\xa4/thumbnail/4ba43de6-eba5-11e5-90d2-bc8ccdd91ea1_png_1.png'
p628
sg87
S'/home/olli/Kuvat/Valinta_009.png'
p629
sg89
Nsg90
S'image'
p630
sg92
I0
sg48
I449
sg93
g1
sg49
I566
sg94
F300
sg95
F29.970029970029969
sg96
I1
sg97
S''
sg99
(F29.970029970029969
I0
tp631
sg101
S''
sg51
S'4bb23f5e-eba5-11e5-90d2-bc8ccdd91ea1'
p632
sbsg585
I00
sg586
F100
sg587
(lp633
sg589
F0
sg590
I00
sg591
S'/home/olli/Ty\xc3\xb6p\xc3\xb6yt\xc3\xa4/thumbnail/4ba43de6-eba5-11e5-90d2-bc8ccdd91ea1_png_1.png'
p634
sg593
S'Valinta_009.png'
p635
sg595
S'centre'
p636
sg597
I01
sg598
F3
sg599
S'4e5530ae-eba5-11e5-90d2-bc8ccdd91ea1'
p637
sba(iclasses.clip
clip
p638
(dp639
g543
g544
sg545
I00
sg546
I00
sg547
(dp640
g549
(iclasses.keyframe
keyframe
p641
(dp642
g47
I0
sg48
F100
sg49
F100
sS'x'
F0
sS'y'
F0
sg50
F1
sg51
S'5126a4d4-eba5-11e5-90d2-bc8ccdd91ea1'
p643
sbsg553
(iclasses.keyframe
keyframe
p644
(dp645
g47
I-1
sg48
F100
sg49
F100
sS'x'
F0
sS'y'
F0
sg50
F1
sg51
S'5126ace0-eba5-11e5-90d2-bc8ccdd91ea1'
p646
sbssg557
F2
sg558
I00
sg559
I00
sg560
F1
sg561
I01
sg562
F2
sg563
F489.28170000000006
sg564
F28.5
sg565
F7146.5
sg566
I01
sg567
F2
sg568
F300
sg304
I00
sg569
S'centre'
p647
sg571
I00
sg572
I00
sg306
I00
sg573
F2
sg574
g32
sg575
I01
sg576
F0
sg577
g626
sg585
I00
sg586
F100
sg587
(lp648
sg589
F0
sg590
I00
sg591
S'/home/olli/Ty\xc3\xb6p\xc3\xb6yt\xc3\xa4/thumbnail/4ba43de6-eba5-11e5-90d2-bc8ccdd91ea1_png_1.png'
p649
sg593
S'Valinta_009.png'
p650
sg595
S'centre'
p651
sg597
I01
sg598
F90
sg599
S'51269782-eba5-11e5-90d2-bc8ccdd91ea1'
p652
sba(iclasses.clip
clip
p653
(dp654
S'color'
p655
S'Gold'
p656
sS'moved'
p657
I00
sS'video_fade_out'
p658
I00
sS'keyframes'
p659
(dp660
S'start'
p661
(iclasses.keyframe
keyframe
p662
(dp663
g47
I0
sg48
F100
sg49
F100
sS'x'
F0
sS'y'
F0
sg50
F1
sg51
S'a78eef70-ebaa-11e5-bfbb-bc8ccdd91ea1'
p664
sbsS'end'
p665
(iclasses.keyframe
keyframe
p666
(dp667
g47
I-1
sg48
F100
sg49
F100
sS'x'
F0
sS'y'
F0
sg50
F1
sg51
S'a78ef8a8-ebaa-11e5-bfbb-bc8ccdd91ea1'
p668
sbssS'video_fade_out_amount'
p669
F2
sS'audio_fade_out'
p670
I00
sS'reversed'
p671
I00
sS'speed'
p672
F1
sS'fill'
p673
I01
sS'audio_fade_in_amount'
p674
F2
sS'position_on_track'
p675
F579.2817
sS'drag_y'
p676
F40.075000000000003
sS'drag_x'
p677
F735.05374999999913
sS'play_audio'
p678
I01
sS'audio_fade_out_amount'
p679
F2
sS'max_length'
p680
F300
sS'valign'
p681
S'centre'
p682
sS'video_fade_in'
p683
I00
sS'audio_fade_in'
p684
I00
sS'request_show_properties'
p685
I00
sS'video_fade_in_amount'
p686
F2
sS'parent'
p687
g32
sS'composite'
p688
I01
sS'start_time'
p689
F0
sS'file_object'
p690
(iclasses.files
OpenShotFile
p691
(dp692
g81
F14999
sg82
S''
sg84
I0
sg85
S'/home/olli/Ty\xc3\xb6p\xc3\xb6yt\xc3\xa4/thumbnail/a179b7c8-ebaa-11e5-bfbb-bc8ccdd91ea1_png_1.png'
p693
sg87
S'/home/olli/Kuvat/Valinta_010.png'
p694
sg89
Nsg90
S'image'
p695
sg92
I0
sg48
I462
sg93
g1
sg49
I618
sg94
F300
sg95
F29.970029970029969
sg96
I1
sg97
S''
sg99
(F29.970029970029969
I0
tp696
sg101
S''
sg51
S'a184f67e-ebaa-11e5-bfbb-bc8ccdd91ea1'
p697
sbsS'distort'
p698
I00
sS'volume'
p699
F100
sS'effects'
p700
(lp701
sS'rotation'
p702
F0
sS'is_timeline_scrolling'
p703
I00
sS'thumb_location'
p704
S'/home/olli/Ty\xc3\xb6p\xc3\xb6yt\xc3\xa4/thumbnail/a179b7c8-ebaa-11e5-bfbb-bc8ccdd91ea1_png_1.png'
p705
sS'name'
p706
S'Valinta_010.png'
p707
sS'halign'
p708
S'centre'
p709
sS'play_video'
p710
I01
sS'end_time'
p711
F3
sS'unique_id'
p712
S'a78ee0de-ebaa-11e5-bfbb-bc8ccdd91ea1'
p713
sba(iclasses.clip
clip
p714
(dp715
g655
g656
sg657
I00
sg658
I00
sg659
(dp716
g661
(iclasses.keyframe
keyframe
p717
(dp718
g47
I0
sg48
F100
sg49
F100
sS'x'
F0
sS'y'
F0
sg50
F1
sg51
S'ae45adcc-ebaa-11e5-bfbb-bc8ccdd91ea1'
p719
sbsg665
(iclasses.keyframe
keyframe
p720
(dp721
g47
I-1
sg48
F100
sg49
F100
sS'x'
F0
sS'y'
F0
sg50
F1
sg51
S'ae45b6fa-ebaa-11e5-bfbb-bc8ccdd91ea1'
p722
sbssg669
F2
sg670
I00
sg671
I00
sg672
F1
sg673
I01
sg674
F2
sg675
F582.2817
sg676
F47.5
sg677
F7486.5
sg678
I01
sg679
F2
sg680
F300
sS'show_preview'
p723
I00
sg681
S'centre'
p724
sg683
I00
sg684
I00
sg685
I00
sg686
F2
sg687
g32
sg688
I01
sg689
F0
sg690
g691
sg698
I00
sg699
F100
sg700
(lp725
sg702
F0
sg703
I00
sg704
g705
sg706
S'Valinta_010.png'
p726
sg708
S'centre'
p727
sg710
I01
sg711
F90
sg712
S'ae459f12-ebaa-11e5-bfbb-bc8ccdd91ea1'
p728
sba(iclasses.clip
clip
p729
(dp730
g655
g656
sg657
I01
sg658
I00
sg659
(dp731
g661
(iclasses.keyframe
keyframe
p732
(dp733
g47
I0
sg48
F100
sg49
F100
sS'x'
F0
sS'y'
F0
sg50
F1
sg51
S'896850c6-ebab-11e5-bfbb-bc8ccdd91ea1'
p734
sbsg665
(iclasses.keyframe
keyframe
p735
(dp736
g47
I-1
sg48
F100
sg49
F100
sS'x'
F0
sS'y'
F0
sg50
F1
sg51
S'89685a1c-ebab-11e5-bfbb-bc8ccdd91ea1'
p737
sbssg669
F2
sg670
I00
sg671
I00
sg672
F1
sg673
I01
sg674
F2
sg675
F673.56169999999997
sg676
F114.5
sg677
F9909.4787500000002
sg678
I01
sg679
F2
sg680
F199.36583333333334
sS'show_preview'
p738
I00
sg681
S'centre'
p739
sg683
I00
sg684
I00
sg685
I00
sg686
F2
sg687
g32
sg688
I01
sg689
F109.63999999999999
sg690
(iclasses.files
OpenShotFile
p740
(dp741
g81
F5974
sg82
S'Vorbis'
p742
sg84
I0
sg85
S'/home/olli/Ty\xc3\xb6p\xc3\xb6yt\xc3\xa4/thumbnail/824d864e-ebab-11e5-bfbb-bc8ccdd91ea1_flv_1.png'
p743
sg87
S'/home/olli/Ty\xc3\xb6p\xc3\xb6yt\xc3\xa4/monty_python-_the_bridge_of_death-_7iXw9zZrLo_fmt43-orig.flv'
p744
sg89
Nsg90
S'video'
p745
sg92
I0
sg48
I240
sg93
g1
sg49
I320
sg94
F199.36583333333334
sg95
F29.970029970029969
sg96
I1
sg97
S'On2 VP8'
p746
sg99
(F29.970029970029969
I0
tp747
sg101
S''
sg51
S'825989b2-ebab-11e5-bfbb-bc8ccdd91ea1'
p748
sbsg698
I00
sg699
F100
sg700
(lp749
sg702
F0
sg703
I00
sg704
S'/home/olli/Ty\xc3\xb6p\xc3\xb6yt\xc3\xa4/thumbnail/monty_python-_the_bridge_of_death-_7iXw9zZrLo_fmt43-orig_flv_2.png'
p750
sg706
S'monty_python-_the_bridge_of_death-_7iXw9zZrLo_fmt43-orig.flv'
p751
sg708
g739
sg710
I01
sg711
F135.49383333333333
sg712
S'b61621a2-ebab-11e5-bfbb-bc8ccdd91ea1'
p752
sba(iclasses.clip
clip
p753
(dp754
S'color'
p755
S'Gold'
p756
sS'moved'
p757
I00
sS'video_fade_out'
p758
I00
sS'keyframes'
p759
(dp760
S'start'
p761
(iclasses.keyframe
keyframe
p762
(dp763
g47
I0
sg48
F100
sg49
F100
sS'x'
F0
sS'y'
F0
sg50
F1
sg51
S'617ef004-ebad-11e5-b62c-bc8ccdd91ea1'
p764
sbsS'end'
p765
(iclasses.keyframe
keyframe
p766
(dp767
g47
I-1
sg48
F100
sg49
F100
sS'x'
F0
sS'y'
F0
sg50
F1
sg51
S'617ef9c8-ebad-11e5-b62c-bc8ccdd91ea1'
p768
sbssS'video_fade_out_amount'
p769
F2
sS'audio_fade_out'
p770
I00
sS'reversed'
p771
I00
sS'speed'
p772
F1
sS'fill'
p773
I01
sS'audio_fade_in_amount'
p774
F2
sS'position_on_track'
p775
F699.41553333333331
sS'drag_y'
p776
F18.074999999999999
sS'drag_x'
p777
F665.38083333333361
sS'play_audio'
p778
I01
sS'audio_fade_out_amount'
p779
F2
sS'max_length'
p780
F300
sS'valign'
p781
S'centre'
p782
sS'video_fade_in'
p783
I00
sS'audio_fade_in'
p784
I00
sS'request_show_properties'
p785
I00
sS'video_fade_in_amount'
p786
F2
sS'parent'
p787
g32
sS'composite'
p788
I01
sS'start_time'
p789
F0
sS'file_object'
p790
(iclasses.files
OpenShotFile
p791
(dp792
g81
F14999
sg82
S''
sg84
I0
sg85
S'/home/olli/Ty\xc3\xb6p\xc3\xb6yt\xc3\xa4/thumbnail/5aa3cf84-ebad-11e5-b62c-bc8ccdd91ea1_png_1.png'
p793
sg87
S'/home/olli/Kuvat/Valinta_013.png'
p794
sg89
Nsg90
S'image'
p795
sg92
I0
sg48
I380
sg93
g1
sg49
I621
sg94
F300
sg95
F29.970029970029969
sg96
I1
sg97
S''
sg99
(F29.970029970029969
I0
tp796
sg101
S''
sg51
S'5aac7d14-ebad-11e5-b62c-bc8ccdd91ea1'
p797
sbsS'distort'
p798
I00
sS'volume'
p799
F100
sS'effects'
p800
(lp801
sS'rotation'
p802
F0
sS'is_timeline_scrolling'
p803
I00
sS'thumb_location'
p804
S'/home/olli/Ty\xc3\xb6p\xc3\xb6yt\xc3\xa4/thumbnail/5aa3cf84-ebad-11e5-b62c-bc8ccdd91ea1_png_1.png'
p805
sS'name'
p806
S'Valinta_013.png'
p807
sS'halign'
p808
S'centre'
p809
sS'play_video'
p810
I01
sS'end_time'
p811
F3
sS'unique_id'
p812
S'617ee15e-ebad-11e5-b62c-bc8ccdd91ea1'
p813
sba(iclasses.clip
clip
p814
(dp815
g755
g756
sg757
I00
sg758
I00
sg759
(dp816
g761
(iclasses.keyframe
keyframe
p817
(dp818
g47
I0
sg48
F100
sg49
F100
sS'x'
F0
sS'y'
F0
sg50
F1
sg51
S'63e14f04-ebad-11e5-b62c-bc8ccdd91ea1'
p819
sbsg765
(iclasses.keyframe
keyframe
p820
(dp821
g47
I-1
sg48
F100
sg49
F100
sS'x'
F0
sS'y'
F0
sg50
F1
sg51
S'63e1590e-ebad-11e5-b62c-bc8ccdd91ea1'
p822
sbssg769
F2
sg770
I00
sg771
I00
sg772
F1
sg773
I01
sg774
F2
sg775
F702.41553333333331
sg776
F30.074999999999999
sg777
F702.88083333333452
sg778
I01
sg779
F2
sg780
F300
sS'show_preview'
p823
I00
sg781
S'centre'
p824
sg783
I00
sg784
I00
sg785
I00
sg786
F2
sg787
g32
sg788
I01
sg789
F0
sg790
g791
sg798
I00
sg799
F100
sg800
(lp825
sg802
F0
sg803
I00
sg804
g805
sg806
S'Valinta_013.png'
p826
sg808
S'centre'
p827
sg810
I01
sg811
F90
sg812
S'63e14040-ebad-11e5-b62c-bc8ccdd91ea1'
p828
sba(iclasses.clip
clip
p829
(dp830
g755
g756
sg757
I00
sg758
I00
sg759
(dp831
g761
(iclasses.keyframe
keyframe
p832
(dp833
g47
I0
sg48
F100
sg49
F100
sS'x'
F0
sS'y'
F0
sg50
F1
sg51
S'45ce3246-ebaf-11e5-b62c-bc8ccdd91ea1'
p834
sbsg765
(iclasses.keyframe
keyframe
p835
(dp836
g47
I-1
sg48
F100
sg49
F100
sS'x'
F0
sS'y'
F0
sg50
F1
sg51
S'45ce3b42-ebaf-11e5-b62c-bc8ccdd91ea1'
p837
sbssg769
F2
sg770
I00
sg771
I00
sg772
F1
sg773
I01
sg774
F2
sg775
F792.41553333333331
sg776
F42.075000000000003
sg777
F591.88083333333452
sg778
I01
sg779
F2
sg780
F300
sg781
S'centre'
p838
sg783
I00
sg784
I00
sg785
I00
sg786
F2
sg787
g32
sg788
I01
sg789
F0
sg790
(iclasses.files
OpenShotFile
p839
(dp840
g81
F14999
sg82
S''
sg84
I0
sg85
S'/home/olli/Ty\xc3\xb6p\xc3\xb6yt\xc3\xa4/thumbnail/3d7252e4-ebaf-11e5-b62c-bc8ccdd91ea1_png_1.png'
p841
sg87
S'/home/olli/Kuvat/Valinta_014.png'
p842
sg89
Nsg90
g795
sg92
I0
sg48
I463
sg93
g1
sg49
I604
sg94
F300
sg95
F29.970029970029969
sg96
I1
sg97
S''
sg99
(F29.970029970029969
I0
tp843
sg101
S''
sg51
S'3d7b2fc2-ebaf-11e5-b62c-bc8ccdd91ea1'
p844
sbsg798
I00
sg799
F100
sg800
(lp845
sg802
F0
sg803
I00
sg804
S'/home/olli/Ty\xc3\xb6p\xc3\xb6yt\xc3\xa4/thumbnail/3d7252e4-ebaf-11e5-b62c-bc8ccdd91ea1_png_1.png'
p846
sg806
S'Valinta_014.png'
p847
sg808
S'centre'
p848
sg810
I01
sg811
F3
sg812
S'45ce2422-ebaf-11e5-b62c-bc8ccdd91ea1'
p849
sba(iclasses.clip
clip
p850
(dp851
g755
g756
sg757
I00
sg758
I00
sg759
(dp852
g761
(iclasses.keyframe
keyframe
p853
(dp854
g47
I0
sg48
F100
sg49
F100
sS'x'
F0
sS'y'
F0
sg50
F1
sg51
S'479cd91a-ebaf-11e5-b62c-bc8ccdd91ea1'
p855
sbsg765
(iclasses.keyframe
keyframe
p856
(dp857
g47
I-1
sg48
F100
sg49
F100
sS'x'
F0
sS'y'
F0
sg50
F1
sg51
S'479ce248-ebaf-11e5-b62c-bc8ccdd91ea1'
p858
sbssg769
F2
sg770
I00
sg771
I00
sg772
F1
sg773
I01
sg774
F2
sg775
F795.41553333333331
sg776
F48.075000000000003
sg777
F774.38083333333452
sg778
I01
sg779
F2
sg780
F300
sg823
I00
sg781
S'centre'
p859
sg783
I00
sg784
I00
sg785
I00
sg786
F2
sg787
g32
sg788
I01
sg789
F0
sg790
g839
sg798
I00
sg799
F100
sg800
(lp860
sg802
F0
sg803
I00
sg804
g846
sg806
S'Valinta_014.png'
p861
sg808
S'centre'
p862
sg810
I01
sg811
F90
sg812
S'479ccac4-ebaf-11e5-b62c-bc8ccdd91ea1'
p863
sba(iclasses.clip
clip
p864
(dp865
g755
g756
sg757
I00
sg758
I00
sg759
(dp866
g761
(iclasses.keyframe
keyframe
p867
(dp868
g47
I0
sg48
F100
sg49
F100
sS'x'
F0
sS'y'
F0
sg50
F1
sg51
S'aa5da5de-ebaf-11e5-b62c-bc8ccdd91ea1'
p869
sbsg765
(iclasses.keyframe
keyframe
p870
(dp871
g47
I-1
sg48
F100
sg49
F100
sS'x'
F0
sS'y'
F0
sg50
F1
sg51
S'aa5daf84-ebaf-11e5-b62c-bc8ccdd91ea1'
p872
sbssg769
F2
sg770
I00
sg771
I00
sg772
F1
sg773
I01
sg774
F2
sg775
F885.41553333333331
sg776
F22.5
sg777
F11087.5
sg778
I01
sg779
F2
sg780
F300
sg781
S'centre'
p873
sg783
I00
sg784
I00
sg785
I00
sg786
F2
sg787
g32
sg788
I01
sg789
F0
sg790
(iclasses.files
OpenShotFile
p874
(dp875
g81
F14999
sg82
S''
sg84
I0
sg85
S'/home/olli/Ty\xc3\xb6p\xc3\xb6yt\xc3\xa4/thumbnail/9e898296-ebaf-11e5-b62c-bc8ccdd91ea1_png_1.png'
p876
sg87
S'/home/olli/Kuvat/Valinta_015.png'
p877
sg89
Nsg90
g795
sg92
I0
sg48
I470
sg93
g1
sg49
I633
sg94
F300
sg95
F29.970029970029969
sg96
I1
sg97
S''
sg99
(F29.970029970029969
I0
tp878
sg101
S''
sg51
S'9e90f4d6-ebaf-11e5-b62c-bc8ccdd91ea1'
p879
sbsg798
I00
sg799
F100
sg800
(lp880
sg802
F0
sg803
I00
sg804
S'/home/olli/Ty\xc3\xb6p\xc3\xb6yt\xc3\xa4/thumbnail/9e898296-ebaf-11e5-b62c-bc8ccdd91ea1_png_1.png'
p881
sg806
S'Valinta_015.png'
p882
sg808
S'centre'
p883
sg810
I01
sg811
F3
sg812
S'aa5d97b0-ebaf-11e5-b62c-bc8ccdd91ea1'
p884
sba(iclasses.clip
clip
p885
(dp886
g755
g756
sg757
I00
sg758
I00
sg759
(dp887
g761
(iclasses.keyframe
keyframe
p888
(dp889
g47
I0
sg48
F100
sg49
F100
sS'x'
F0
sS'y'
F0
sg50
F1
sg51
S'ad42a38a-ebaf-11e5-b62c-bc8ccdd91ea1'
p890
sbsg765
(iclasses.keyframe
keyframe
p891
(dp892
g47
I-1
sg48
F100
sg49
F100
sS'x'
F0
sS'y'
F0
sg50
F1
sg51
S'ad42ac86-ebaf-11e5-b62c-bc8ccdd91ea1'
p893
sbssg769
F2
sg770
I00
sg771
I00
sg772
F1
sg773
I01
sg774
F2
sg775
F888.41553333333331
sg776
F30.5
sg777
F11816.5
sg778
I01
sg779
F2
sg780
F300
sg823
I00
sg781
S'centre'
p894
sg783
I00
sg784
I00
sg785
I00
sg786
F2
sg787
g32
sg788
I01
sg789
F0
sg790
g874
sg798
I00
sg799
F100
sg800
(lp895
sg802
F0
sg803
I00
sg804
g881
sg806
S'Valinta_015.png'
p896
sg808
S'centre'
p897
sg810
I01
sg811
F73.144466666666631
sg812
S'ad4295de-ebaf-11e5-b62c-bc8ccdd91ea1'
p898
sba(iclasses.clip
clip
p899
(dp900
g755
g756
sg757
I00
sg758
I00
sg759
(dp901
g761
(iclasses.keyframe
keyframe
p902
(dp903
g47
I0
sg48
F100
sg49
F100
sS'x'
F0
sS'y'
F0
sg50
F1
sg51
g890
sbsg765
(iclasses.keyframe
keyframe
p904
(dp905
g47
I-1
sg48
F100
sg49
F100
sS'x'
F0
sS'y'
F0
sg50
F1
sg51
g893
sbssg769
F2
sg770
I00
sg771
I00
sg772
F1
sg773
I01
sg774
F2
sg775
F961.55999999999995
sg776
F0
sg777
F0
sg778
I01
sg779
F2
sg780
F300
sg781
g894
sg783
I00
sg784
I00
sg786
F2
sg787
g32
sg788
I01
sg789
F73.144466666666631
sg790
g874
sg798
I00
sg799
F100
sg800
(lp906
sg802
F0
sg803
I00
sg804
S'/home/olli/Ty\xc3\xb6p\xc3\xb6yt\xc3\xa4/thumbnail/9e898296-ebaf-11e5-b62c-bc8ccdd91ea1_png_1.png'
p907
sg806
g896
sg808
g897
sg810
I01
sg811
F90
sg812
S'd6b84854-ebb0-11e5-b62c-bc8ccdd91ea1'
p908
sba(iclasses.clip
clip
p909
(dp910
g755
g756
sg757
I01
sg758
I00
sg759
(dp911
g761
(iclasses.keyframe
keyframe
p912
(dp913
g47
I0
sg48
F100
sg49
F100
sS'x'
F0
sS'y'
F0
sg50
F1
sg51
S'a13ec310-ebb0-11e5-b62c-bc8ccdd91ea1'
p914
sbsg765
(iclasses.keyframe
keyframe
p915
(dp916
g47
I-1
sg48
F100
sg49
F100
sS'x'
F0
sS'y'
F0
sg50
F1
sg51
S'a13ec75c-ebb0-11e5-b62c-bc8ccdd91ea1'
p917
sbssg769
F2
sg770
I00
sg771
I00
sg772
F1
sg773
I01
sg774
F2
sg775
F979.2919333333333
sg776
F179.5
sg777
F12453.5
sg778
I01
sg779
F2
sg780
F90.290199999999999
sg823
I00
sg781
S'centre'
p918
sg783
I00
sg784
I00
sg785
I00
sg786
F2
sg787
g32
sg788
I01
sg789
F7.4519333333333861
sg790
(iclasses.files
OpenShotFile
p919
(dp920
g81
F2705
sg82
S'Vorbis'
p921
sg84
I0
sg85
S'/home/olli/Ty\xc3\xb6p\xc3\xb6yt\xc3\xa4/thumbnail/9a92db46-ebb0-11e5-b62c-bc8ccdd91ea1_flv_1.png'
p922
sg87
S'/home/olli/Ty\xc3\xb6p\xc3\xb6yt\xc3\xa4/pieni_merenneito-kl-dUzNfj-Cmkw_fmt43-orig.flv'
p923
sg89
Nsg90
S'video'
p924
sg92
I0
sg48
I360
sg93
g1
sg49
I640
sg94
F90.290199999999999
sg95
F29.970029970029969
sg96
I1
sg97
S'On2 VP8'
p925
sg99
(F29.970029970029969
I0
tp926
sg101
S''
sg51
S'9aa24838-ebb0-11e5-b62c-bc8ccdd91ea1'
p927
sbsg798
I00
sg799
F100
sg800
(lp928
sg802
F0
sg803
I00
sg804
S'/home/olli/Ty\xc3\xb6p\xc3\xb6yt\xc3\xa4/thumbnail/pieni_merenneito-kl-dUzNfj-Cmkw_fmt43-orig_flv_2.png'
p929
sg806
S'pieni_merenneito_-_tingeltangeli_-kl-dUzNfj-Cmkw_fmt43-orig.flv'
p930
sg808
g918
sg810
I01
sg811
F26.23736666666673
sg812
S'd4f107c2-ebb0-11e5-b62c-bc8ccdd91ea1'
p931
sba(iclasses.clip
clip
p932
(dp933
g755
g756
sg757
I00
sg758
I00
sg759
(dp934
g761
(iclasses.keyframe
keyframe
p935
(dp936
g47
I0
sg48
F100
sg49
F100
sS'x'
F0
sS'y'
F0
sg50
F1
sg51
S'b35334c2-ebb1-11e5-b62c-bc8ccdd91ea1'
p937
sbsg765
(iclasses.keyframe
keyframe
p938
(dp939
g47
I-1
sg48
F100
sg49
F100
sS'x'
F0
sS'y'
F0
sg50
F1
sg51
S'b3533af8-ebb1-11e5-b62c-bc8ccdd91ea1'
p940
sbssg769
F2
sg770
I00
sg771
I00
sg772
F1
sg773
I01
sg774
F2
sg775
F998.07736666666665
sg776
F40.075000000000003
sg777
F488.10791666666773
sg778
I01
sg779
F2
sg780
F300
sg781
S'centre'
p941
sg783
I00
sg784
I00
sg785
I00
sg786
F2
sg787
g32
sg788
I01
sg789
F0
sg790
(iclasses.files
OpenShotFile
p942
(dp943
g81
F14999
sg82
S''
sg84
I0
sg85
S'/home/olli/Ty\xc3\xb6p\xc3\xb6yt\xc3\xa4/thumbnail/acc9dfca-ebb1-11e5-b62c-bc8ccdd91ea1_png_1.png'
p944
sg87
S'/home/olli/Kuvat/Valinta_016.png'
p945
sg89
Nsg90
g795
sg92
I0
sg48
I447
sg93
g1
sg49
I624
sg94
F300
sg95
F29.970029970029969
sg96
I1
sg97
S''
sg99
(F29.970029970029969
I0
tp946
sg101
S''
sg51
S'acd1138a-ebb1-11e5-b62c-bc8ccdd91ea1'
p947
sbsg798
I00
sg799
F100
sg800
(lp948
sg802
F0
sg803
I00
sg804
S'/home/olli/Ty\xc3\xb6p\xc3\xb6yt\xc3\xa4/thumbnail/acc9dfca-ebb1-11e5-b62c-bc8ccdd91ea1_png_1.png'
p949
sg806
S'Valinta_016.png'
p950
sg808
S'centre'
p951
sg810
I01
sg811
F3
sg812
S'b3532aa4-ebb1-11e5-b62c-bc8ccdd91ea1'
p952
sba(iclasses.clip
clip
p953
(dp954
g755
g756
sg757
I00
sg758
I00
sg759
(dp955
g761
(iclasses.keyframe
keyframe
p956
(dp957
g47
I0
sg48
F100
sg49
F100
sS'x'
F0
sS'y'
F0
sg50
F1
sg51
S'b54dabf4-ebb1-11e5-b62c-bc8ccdd91ea1'
p958
sbsg765
(iclasses.keyframe
keyframe
p959
(dp960
g47
I-1
sg48
F100
sg49
F100
sS'x'
F0
sS'y'
F0
sg50
F1
sg51
S'b54db040-ebb1-11e5-b62c-bc8ccdd91ea1'
p961
sbssg769
F2
sg770
I00
sg771
I00
sg772
F1
sg773
I01
sg774
F2
sg775
F1001.0773666666666
sg776
F17.5
sg777
F13593.5
sg778
I01
sg779
F2
sg780
F300
sg823
I00
sg781
S'centre'
p962
sg783
I00
sg784
I00
sg785
I00
sg786
F2
sg787
g32
sg788
I01
sg789
F0
sg790
g942
sg798
I00
sg799
F100
sg800
(lp963
sg802
F0
sg803
I00
sg804
g949
sg806
S'Valinta_016.png'
p964
sg808
S'centre'
p965
sg810
I01
sg811
F90
sg812
S'b54da456-ebb1-11e5-b62c-bc8ccdd91ea1'
p966
sba(iclasses.clip
clip
p967
(dp968
S'color'
p969
S'Gold'
p970
sS'moved'
p971
I01
sS'video_fade_out'
p972
I00
sS'keyframes'
p973
(dp974
S'start'
p975
(iclasses.keyframe
keyframe
p976
(dp977
g47
I0
sg48
F100
sg49
F100
sS'x'
F0
sS'y'
F0
sg50
F1
sg51
S'da8168d4-ebbb-11e5-96e8-bc8ccdd91ea1'
p978
sbsS'end'
p979
(iclasses.keyframe
keyframe
p980
(dp981
g47
I-1
sg48
F100
sg49
F100
sS'x'
F0
sS'y'
F0
sg50
F1
sg51
S'da817234-ebbb-11e5-96e8-bc8ccdd91ea1'
p982
sbssS'video_fade_out_amount'
p983
F2
sS'audio_fade_out'
p984
I00
sS'reversed'
p985
I00
sS'speed'
p986
F1
sS'fill'
p987
I01
sS'audio_fade_in_amount'
p988
F2
sS'position_on_track'
p989
F1091.0773666666666
sS'drag_y'
p990
F52.5
sS'drag_x'
p991
F13670.5
sS'play_audio'
p992
I01
sS'audio_fade_out_amount'
p993
F2
sS'max_length'
p994
F300
sS'show_preview'
p995
I00
sS'valign'
p996
S'centre'
p997
sS'video_fade_in'
p998
I00
sS'audio_fade_in'
p999
I00
sS'request_show_properties'
p1000
I00
sS'video_fade_in_amount'
p1001
F2
sS'parent'
p1002
g32
sS'composite'
p1003
I01
sS'start_time'
p1004
F0
sS'file_object'
p1005
(iclasses.files
OpenShotFile
p1006
(dp1007
g81
F14999
sg82
S''
sg84
I0
sg85
S'/home/olli/Ty\xc3\xb6p\xc3\xb6yt\xc3\xa4/thumbnail/34a8ba12-ebab-11e5-bfbb-bc8ccdd91ea1_png_1.png'
p1008
sg87
S'/home/olli/Kuvat/Valinta_012.png'
p1009
sg89
Nsg90
g695
sg92
I0
sg48
I362
sg93
g1
sg49
I586
sg94
F300
sg95
F29.970029970029969
sg96
I1
sg97
S''
sg99
(F29.970029970029969
I0
tp1010
sg101
S''
sg51
S'34aecdbc-ebab-11e5-bfbb-bc8ccdd91ea1'
p1011
sbsS'distort'
p1012
I00
sS'volume'
p1013
F100
sS'effects'
p1014
(lp1015
sS'rotation'
p1016
F0
sS'is_timeline_scrolling'
p1017
I00
sS'thumb_location'
p1018
S'/home/olli/Ty\xc3\xb6p\xc3\xb6yt\xc3\xa4/thumbnail/34a8ba12-ebab-11e5-bfbb-bc8ccdd91ea1_png_1.png'
p1019
sS'name'
p1020
S'Valinta_012.png'
p1021
sS'halign'
p1022
S'centre'
p1023
sS'play_video'
p1024
I01
sS'end_time'
p1025
F3
sS'unique_id'
p1026
S'da815600-ebbb-11e5-96e8-bc8ccdd91ea1'
p1027
sba(iclasses.clip
clip
p1028
(dp1029
g969
g970
sg971
I01
sg972
I00
sg973
(dp1030
g975
(iclasses.keyframe
keyframe
p1031
(dp1032
g47
I0
sg48
F100
sg49
F100
sS'x'
F0
sS'y'
F0
sg50
F1
sg51
S'e0c2e1fa-ebbb-11e5-96e8-bc8ccdd91ea1'
p1033
sbsg979
(iclasses.keyframe
keyframe
p1034
(dp1035
g47
I-1
sg48
F100
sg49
F100
sS'x'
F0
sS'y'
F0
sg50
F1
sg51
S'e0c2eb28-ebbb-11e5-96e8-bc8ccdd91ea1'
p1036
sbssg983
F2
sg984
I00
sg985
I00
sg986
F1
sg987
I01
sg988
F2
sg989
F1094.0773666666666
sg990
F52.5
sg991
F13855.5
sg992
I00
sg993
F2
sg994
F300
sg995
I00
sg996
S'centre'
p1037
sg998
I00
sg999
I00
sg1000
I00
sg1001
F2
sg1002
g32
sg1003
I01
sg1004
F0
sg1005
g1006
sg1012
I00
sg1013
F100
sg1014
(lp1038
sg1016
F0
sg1017
I00
sg1018
g1019
sg1020
S'Valinta_012.png'
p1039
sg1022
S'centre'
p1040
sg1024
I01
sg1025
F90
sg1026
S'e0c2d32c-ebbb-11e5-96e8-bc8ccdd91ea1'
p1041
sba(iclasses.clip
clip
p1042
(dp1043
g969
g970
sg971
I00
sg972
I00
sg973
(dp1044
g975
(iclasses.keyframe
keyframe
p1045
(dp1046
g47
I0
sg48
F100
sg49
F100
sS'x'
F0
sS'y'
F0
sg50
F1
sg51
S'd445adb8-ebbb-11e5-96e8-bc8ccdd91ea1'
p1047
sbsg979
(iclasses.keyframe
keyframe
p1048
(dp1049
g47
I-1
sg48
F100
sg49
F100
sS'x'
F0
sS'y'
F0
sg50
F1
sg51
S'd445b27c-ebbb-11e5-96e8-bc8ccdd91ea1'
p1050
sbssg983
F2
sg984
I00
sg985
I00
sg986
F1
sg987
I01
sg988
F2
sg989
F1184.0773666666666
sg990
F51.074999999999996
sg991
F600.10791666666773
sg992
I01
sg993
F2
sg994
F300
sg995
I00
sg996
S'centre'
p1051
sg998
I00
sg999
I00
sg1000
I00
sg1001
F2
sg1002
g32
sg1003
I01
sg1004
F0
sg1005
(iclasses.files
OpenShotFile
p1052
(dp1053
g81
F14999
sg82
S''
sg84
I0
sg85
S'/home/olli/Ty\xc3\xb6p\xc3\xb6yt\xc3\xa4/thumbnail/f849d9de-ebaa-11e5-bfbb-bc8ccdd91ea1_png_1.png'
p1054
sg87
S'/home/olli/Kuvat/Valinta_011.png'
p1055
sg89
Nsg90
g695
sg92
I0
sg48
I420
sg93
g1
sg49
I632
sg94
F300
sg95
F29.970029970029969
sg96
I1
sg97
S''
sg99
(F29.970029970029969
I0
tp1056
sg101
S''
sg51
S'f851196a-ebaa-11e5-bfbb-bc8ccdd91ea1'
p1057
sbsg1012
I00
sg1013
F100
sg1014
(lp1058
sg1016
F0
sg1017
I00
sg1018
S'/home/olli/Ty\xc3\xb6p\xc3\xb6yt\xc3\xa4/thumbnail/f849d9de-ebaa-11e5-bfbb-bc8ccdd91ea1_png_1.png'
p1059
sg1020
S'Valinta_011.png'
p1060
sg1022
S'centre'
p1061
sg1024
I01
sg1025
F3
sg1026
S'd445a3ea-ebbb-11e5-96e8-bc8ccdd91ea1'
p1062
sba(iclasses.clip
clip
p1063
(dp1064
g969
g970
sg971
I01
sg972
I00
sg973
(dp1065
g975
(iclasses.keyframe
keyframe
p1066
(dp1067
g47
I0
sg48
F100
sg49
F100
sS'x'
F0
sS'y'
F0
sg50
F1
sg51
S'0cea9232-ebbc-11e5-96e8-bc8ccdd91ea1'
p1068
sbsg979
(iclasses.keyframe
keyframe
p1069
(dp1070
g47
I-1
sg48
F100
sg49
F100
sS'x'
F0
sS'y'
F0
sg50
F1
sg51
S'0cea9b6a-ebbc-11e5-96e8-bc8ccdd91ea1'
p1071
sbssg983
F2
sg984
I00
sg985
I00
sg986
F1
sg987
I01
sg988
F2
sg989
F1187.0773666666666
sg990
F36.5
sg991
F15095.5
sg992
I01
sg993
F2
sg994
F300
sg995
I00
sg996
S'centre'
p1072
sg998
I00
sg999
I00
sg1000
I00
sg1001
F2
sg1002
g32
sg1003
I01
sg1004
F0
sg1005
g1052
sg1012
I00
sg1013
F100
sg1014
(lp1073
sg1016
F0
sg1017
I00
sg1018
g1059
sg1020
S'Valinta_011.png'
p1074
sg1022
S'centre'
p1075
sg1024
I01
sg1025
F90
sg1026
S'0cea83d2-ebbc-11e5-96e8-bc8ccdd91ea1'
p1076
sba(iclasses.clip
clip
p1077
(dp1078
g755
g756
sg757
I01
sg758
I00
sg759
(dp1079
g761
(iclasses.keyframe
keyframe
p1080
(dp1081
g47
I0
sg48
F100
sg49
F100
sS'x'
F0
sS'y'
F0
sg50
F1
sg51
S'f42b8fa8-ebb1-11e5-b62c-bc8ccdd91ea1'
p1082
sbsg765
(iclasses.keyframe
keyframe
p1083
(dp1084
g47
I-1
sg48
F100
sg49
F100
sS'x'
F0
sS'y'
F0
sg50
F1
sg51
S'f42b967e-ebb1-11e5-b62c-bc8ccdd91ea1'
p1085
sbssg769
F2
sg770
I00
sg771
I00
sg772
F1
sg773
I01
sg774
F2
sg775
F1277.0773666666666
sg776
F162.07499999999999
sg777
F13949.075000000001
sg778
I01
sg779
F2
sg780
F300
sS'show_preview'
p1086
I00
sg781
S'centre'
p1087
sg783
I00
sg784
I00
sg785
I00
sg786
F2
sg787
g32
sg788
I01
sg789
F0
sg790
(iclasses.files
OpenShotFile
p1088
(dp1089
g81
F14999
sg82
S''
sg84
I0
sg85
S'/home/olli/Ty\xc3\xb6p\xc3\xb6yt\xc3\xa4/thumbnail/ed3bafb6-ebb1-11e5-b62c-bc8ccdd91ea1_png_1.png'
p1090
sg87
S'/home/olli/Kuvat/Valinta_017.png'
p1091
sg89
Nsg90
g795
sg92
I0
sg48
I328
sg93
g1
sg49
I543
sg94
F300
sg95
F29.970029970029969
sg96
I1
sg97
S''
sg99
(F29.970029970029969
I0
tp1092
sg101
S''
sg51
S'ed42148c-ebb1-11e5-b62c-bc8ccdd91ea1'
p1093
sbsg798
I00
sg799
F100
sg800
(lp1094
sg802
F0
sg803
I00
sg804
S'/home/olli/Ty\xc3\xb6p\xc3\xb6yt\xc3\xa4/thumbnail/ed3bafb6-ebb1-11e5-b62c-bc8ccdd91ea1_png_1.png'
p1095
sg806
S'Valinta_017.png'
p1096
sg808
S'centre'
p1097
sg810
I01
sg811
F4
sg812
S'f42b8512-ebb1-11e5-b62c-bc8ccdd91ea1'
p1098
sba(iclasses.clip
clip
p1099
(dp1100
g755
g756
sg757
I00
sg758
I00
sg759
(dp1101
g761
(iclasses.keyframe
keyframe
p1102
(dp1103
g47
I0
sg48
F100
sg49
F100
sS'x'
F0
sS'y'
F0
sg50
F1
sg51
S'02d06a1a-ebb2-11e5-b62c-bc8ccdd91ea1'
p1104
sbsg765
(iclasses.keyframe
keyframe
p1105
(dp1106
g47
I-1
sg48
F100
sg49
F100
sS'x'
F0
sS'y'
F0
sg50
F1
sg51
S'02d07370-ebb2-11e5-b62c-bc8ccdd91ea1'
p1107
sbssg769
F2
sg770
I00
sg771
I00
sg772
F1
sg773
I01
sg774
F2
sg775
F1281.0773666666666
sg776
F39.5
sg777
F16109.5
sg778
I00
sg779
F2
sg780
F150.61713333333333
sg823
I00
sg781
g918
sg783
I00
sg784
I00
sg785
I00
sg786
F2
sg787
g32
sg788
I01
sg789
F0
sg790
(iclasses.files
OpenShotFile
p1108
(dp1109
g81
F4513
sg82
S'Vorbis'
p1110
sg84
I0
sg85
S'/home/olli/Ty\xc3\xb6p\xc3\xb6yt\xc3\xa4/thumbnail/d90e04ae-e944-11e5-95d5-bc8ccdd91ea1_flv_1.png'
p1111
sg87
S'/home/olli/Ty\xc3\xb6p\xc3\xb6yt\xc3\xa4/bathrobe_dance_in_a_psychiatric_ward-asgfeRXdjxc_fmt43-orig.flv'
p1112
sg89
Nsg90
g91
sg92
I0
sg48
I360
sg93
g1
sg49
I360
sg94
F150.61713333333333
sg95
F29.970029970029969
sg96
I1
sg97
S'On2 VP8'
p1113
sg99
(F29.970029970029969
I0
tp1114
sg101
S''
sg51
S'd91d3b40-e944-11e5-95d5-bc8ccdd91ea1'
p1115
sbsg798
I00
sg799
F100
sg800
(lp1116
sg802
F0
sg803
I00
sg804
S'/home/olli/Ty\xc3\xb6p\xc3\xb6yt\xc3\xa4/thumbnail/d90e04ae-e944-11e5-95d5-bc8ccdd91ea1_flv_1.png'
p1117
sg806
S'bathrobe_dance_in_a_psychiatric_ward-asgfeRXdjxc_fmt43-orig.flv'
p1118
sg808
g918
sg810
I01
sg811
F26.377300000000105
sg812
S'02d05b88-ebb2-11e5-b62c-bc8ccdd91ea1'
p1119
sba(iclasses.clip
clip
p1120
(dp1121
S'color'
p1122
S'Gold'
p1123
sS'moved'
p1124
I00
sS'video_fade_out'
p1125
I00
sS'keyframes'
p1126
(dp1127
S'start'
p1128
(iclasses.keyframe
keyframe
p1129
(dp1130
g47
I0
sg48
F100
sg49
F100
sS'x'
F0
sS'y'
F0
sg50
F1
sg51
S'e17817ca-ec72-11e5-af8f-bc8ccdd91ea1'
p1131
sbsS'end'
p1132
(iclasses.keyframe
keyframe
p1133
(dp1134
g47
I-1
sg48
F100
sg49
F100
sS'x'
F0
sS'y'
F0
sg50
F1
sg51
S'e1781c84-ec72-11e5-af8f-bc8ccdd91ea1'
p1135
sbssS'video_fade_out_amount'
p1136
F2
sS'audio_fade_out'
p1137
I00
sS'reversed'
p1138
I00
sS'speed'
p1139
F1
sS'fill'
p1140
I01
sS'audio_fade_in_amount'
p1141
F2
sS'position_on_track'
p1142
F1328.0506971109041
sS'drag_y'
p1143
F39.5
sS'drag_x'
p1144
F16643.5
sS'play_audio'
p1145
I01
sS'audio_fade_out_amount'
p1146
F2
sS'max_length'
p1147
F300
sS'show_preview'
p1148
I00
sS'valign'
p1149
S'centre'
p1150
sS'video_fade_in'
p1151
I00
sS'audio_fade_in'
p1152
I00
sS'request_show_properties'
p1153
I00
sS'video_fade_in_amount'
p1154
F2
sS'parent'
p1155
g32
sS'composite'
p1156
I01
sS'start_time'
p1157
F0
sS'file_object'
p1158
(iclasses.files
OpenShotFile
p1159
(dp1160
g81
F14999
sg82
S''
sg84
I0
sg85
S'/home/olli/Ty\xc3\xb6p\xc3\xb6yt\xc3\xa4/thumbnail/c0765c6a-ec6f-11e5-a823-bc8ccdd91ea1_png_1.png'
p1161
sg87
S'/home/olli/Kuvat/Valinta_018.png'
p1162
sg89
Nsg90
S'image'
p1163
sg92
I0
sg48
I314
sg93
g1
sg49
I559
sg94
F300
sg95
F29.970029970029969
sg96
I1
sg97
S''
sg99
(F29.970029970029969
I0
tp1164
sg101
S''
sg51
S'c080b23c-ec6f-11e5-a823-bc8ccdd91ea1'
p1165
sbsS'distort'
p1166
I00
sS'volume'
p1167
F100
sS'effects'
p1168
(lp1169
sS'rotation'
p1170
F0
sS'is_timeline_scrolling'
p1171
I00
sS'thumb_location'
p1172
S'/home/olli/Ty\xc3\xb6p\xc3\xb6yt\xc3\xa4/thumbnail/c0765c6a-ec6f-11e5-a823-bc8ccdd91ea1_png_1.png'
p1173
sS'name'
p1174
S'Valinta_018.png'
p1175
sS'halign'
p1176
g1150
sS'play_video'
p1177
I01
sS'end_time'
p1178
F7
sS'unique_id'
p1179
S'e1780e4c-ec72-11e5-af8f-bc8ccdd91ea1'
p1180
sba(iclasses.clip
clip
p1181
(dp1182
S'color'
p1183
S'Gold'
p1184
sS'moved'
p1185
I00
sS'video_fade_out'
p1186
I00
sS'keyframes'
p1187
(dp1188
S'start'
p1189
(iclasses.keyframe
keyframe
p1190
(dp1191
g47
I0
sg48
F100
sg49
F100
sS'x'
F0
sS'y'
F0
sg50
F1
sg51
S'1a56d610-ec75-11e5-9fb7-bc8ccdd91ea1'
p1192
sbsS'end'
p1193
(iclasses.keyframe
keyframe
p1194
(dp1195
g47
I-1
sg48
F100
sg49
F100
sS'x'
F0
sS'y'
F0
sg50
F1
sg51
S'1a56da20-ec75-11e5-9fb7-bc8ccdd91ea1'
p1196
sbssS'video_fade_out_amount'
p1197
F2
sS'audio_fade_out'
p1198
I00
sS'reversed'
p1199
I00
sS'speed'
p1200
F1
sS'fill'
p1201
I01
sS'audio_fade_in_amount'
p1202
F2
sS'position_on_track'
p1203
F1335.084697110904
sS'drag_y'
p1204
F46.5
sS'drag_x'
p1205
F16763.5
sS'play_audio'
p1206
I01
sS'audio_fade_out_amount'
p1207
F2
sS'max_length'
p1208
F300
sg1148
I00
sS'valign'
p1209
S'centre'
p1210
sS'video_fade_in'
p1211
I00
sS'audio_fade_in'
p1212
I00
sg1153
I00
sS'video_fade_in_amount'
p1213
F2
sS'parent'
p1214
g32
sS'composite'
p1215
I01
sS'start_time'
p1216
F0
sS'file_object'
p1217
(iclasses.files
OpenShotFile
p1218
(dp1219
g81
F14999
sg82
S''
sg84
I0
sg85
S'/home/olli/Ty\xc3\xb6p\xc3\xb6yt\xc3\xa4/thumbnail/107464f0-ec75-11e5-9fb7-bc8ccdd91ea1_png_1.png'
p1220
sg87
S'/home/olli/Kuvat/Valinta_019.png'
p1221
sg89
Nsg90
S'image'
p1222
sg92
I0
sg48
I455
sg93
g1
sg49
I601
sg94
F300
sg95
F29.970029970029969
sg96
I1
sg97
S''
sg99
(F29.970029970029969
I0
tp1223
sg101
S''
sg51
S'107eb3ba-ec75-11e5-9fb7-bc8ccdd91ea1'
p1224
sbsS'distort'
p1225
I00
sS'volume'
p1226
F100
sS'effects'
p1227
(lp1228
sS'rotation'
p1229
F0
sS'is_timeline_scrolling'
p1230
I00
sS'thumb_location'
p1231
S'/home/olli/Ty\xc3\xb6p\xc3\xb6yt\xc3\xa4/thumbnail/107464f0-ec75-11e5-9fb7-bc8ccdd91ea1_png_1.png'
p1232
sS'name'
p1233
S'Valinta_019.png'
p1234
sS'halign'
p1235
S'centre'
p1236
sS'play_video'
p1237
I01
sS'end_time'
p1238
F10
sS'unique_id'
p1239
S'1a56cdaa-ec75-11e5-9fb7-bc8ccdd91ea1'
p1240
sba(iclasses.clip
clip
p1241
(dp1242
g1183
g1184
sg1185
I00
sg1186
I00
sg1187
(dp1243
g1189
(iclasses.keyframe
keyframe
p1244
(dp1245
g47
I0
sg48
F100
sg49
F100
sS'x'
F0
sS'y'
F0
sg50
F1
sg51
S'3e67273a-ec75-11e5-9fb7-bc8ccdd91ea1'
p1246
sbsg1193
(iclasses.keyframe
keyframe
p1247
(dp1248
g47
I-1
sg48
F100
sg49
F100
sS'x'
F0
sS'y'
F0
sg50
F1
sg51
S'3e67304a-ec75-11e5-9fb7-bc8ccdd91ea1'
p1249
sbssg1197
F2
sg1198
I00
sg1199
I00
sg1200
F1
sg1201
I01
sg1202
F2
sg1203
F1345.084697110904
sg1204
F39.075000000000003
sg1205
F805.51628611369961
sg1206
I01
sg1207
F2
sg1208
F300
sg1209
S'centre'
p1250
sg1211
I00
sg1212
I00
sg1153
I00
sg1213
F2
sg1214
g32
sg1215
I01
sg1216
F0
sg1217
(iclasses.files
OpenShotFile
p1251
(dp1252
g81
F14999
sg82
S''
sg84
I0
sg85
S'/home/olli/Ty\xc3\xb6p\xc3\xb6yt\xc3\xa4/thumbnail/e2f4858c-ec74-11e5-9fb7-bc8ccdd91ea1_png_1.png'
p1253
sg87
S'/home/olli/Kuvat/Valinta_020.png'
p1254
sg89
Nsg90
g1222
sg92
I0
sg48
I460
sg93
g1
sg49
I547
sg94
F300
sg95
F29.970029970029969
sg96
I1
sg97
S''
sg99
(F29.970029970029969
I0
tp1255
sg101
S''
sg51
S'e2fd2bc4-ec74-11e5-9fb7-bc8ccdd91ea1'
p1256
sbsg1225
I00
sg1226
F100
sg1227
(lp1257
sg1229
F0
sg1230
I00
sg1231
S'/home/olli/Ty\xc3\xb6p\xc3\xb6yt\xc3\xa4/thumbnail/e2f4858c-ec74-11e5-9fb7-bc8ccdd91ea1_png_1.png'
p1258
sg1233
S'Valinta_020.png'
p1259
sg1235
S'centre'
p1260
sg1237
I01
sg1238
F10
sg1239
S'3e671682-ec75-11e5-9fb7-bc8ccdd91ea1'
p1261
sba(iclasses.clip
clip
p1262
(dp1263
g1183
g1184
sg1185
I00
sg1186
I00
sg1187
(dp1264
g1189
(iclasses.keyframe
keyframe
p1265
(dp1266
g47
I0
sg48
F100
sg49
F100
sS'x'
F0
sS'y'
F0
sg50
F1
sg51
S'52f6d600-ec75-11e5-9fb7-bc8ccdd91ea1'
p1267
sbsg1193
(iclasses.keyframe
keyframe
p1268
(dp1269
g47
I-1
sg48
F100
sg49
F100
sS'x'
F0
sS'y'
F0
sg50
F1
sg51
S'52f6df74-ec75-11e5-9fb7-bc8ccdd91ea1'
p1270
sbssg1197
F2
sg1198
I00
sg1199
I00
sg1200
F1
sg1201
I01
sg1202
F2
sg1203
F1355.084697110904
sg1204
F47.075000000000003
sg1205
F563.51628611369961
sg1206
I01
sg1207
F2
sg1208
F300
sg1209
S'centre'
p1271
sg1211
I00
sg1212
I00
sg1153
I00
sg1213
F2
sg1214
g32
sg1215
I01
sg1216
F0
sg1217
(iclasses.files
OpenShotFile
p1272
(dp1273
g81
F14999
sg82
S''
sg84
I0
sg85
S'/home/olli/Ty\xc3\xb6p\xc3\xb6yt\xc3\xa4/thumbnail/dd2d1fec-ec74-11e5-9fb7-bc8ccdd91ea1_png_1.png'
p1274
sg87
S'/home/olli/Kuvat/Valinta_021.png'
p1275
sg89
Nsg90
g1222
sg92
I0
sg48
I357
sg93
g1
sg49
I586
sg94
F300
sg95
F29.970029970029969
sg96
I1
sg97
S''
sg99
(F29.970029970029969
I0
tp1276
sg101
S''
sg51
S'dd36a47c-ec74-11e5-9fb7-bc8ccdd91ea1'
p1277
sbsg1225
I00
sg1226
F100
sg1227
(lp1278
sg1229
F0
sg1230
I00
sg1231
S'/home/olli/Ty\xc3\xb6p\xc3\xb6yt\xc3\xa4/thumbnail/dd2d1fec-ec74-11e5-9fb7-bc8ccdd91ea1_png_1.png'
p1279
sg1233
S'Valinta_021.png'
p1280
sg1235
S'centre'
p1281
sg1237
I01
sg1238
F10
sg1239
S'52f6c08e-ec75-11e5-9fb7-bc8ccdd91ea1'
p1282
sba(iclasses.clip
clip
p1283
(dp1284
g1183
g1184
sg1185
I00
sg1186
I00
sg1187
(dp1285
g1189
(iclasses.keyframe
keyframe
p1286
(dp1287
g47
I0
sg48
F100
sg49
F100
sS'x'
F0
sS'y'
F0
sg50
F1
sg51
S'6b3c3fac-ec75-11e5-9fb7-bc8ccdd91ea1'
p1288
sbsg1193
(iclasses.keyframe
keyframe
p1289
(dp1290
g47
I-1
sg48
F100
sg49
F100
sS'x'
F0
sS'y'
F0
sg50
F1
sg51
S'6b3c48d0-ec75-11e5-9fb7-bc8ccdd91ea1'
p1291
sbssg1197
F2
sg1198
I00
sg1199
I00
sg1200
F1
sg1201
I01
sg1202
F2
sg1203
F1365.084697110904
sg1204
F0
sg1205
F0
sg1206
I01
sg1207
F2
sg1208
F300
sg1209
S'centre'
p1292
sg1211
I00
sg1212
I00
sg1213
F2
sg1214
g32
sg1215
I01
sg1216
F0
sg1217
g578
sg1225
I00
sg1226
F100
sg1227
(lp1293
sg1229
F0
sg1230
I00
sg1231
S'/home/olli/Ty\xc3\xb6p\xc3\xb6yt\xc3\xa4/thumbnail/c795b386-eb9f-11e5-b25d-bc8ccdd91ea1_png_1.png'
p1294
sg1233
S'Valinta_007.png'
p1295
sg1235
g1292
sg1237
I01
sg1238
F7
sg1239
S'6b3c3138-ec75-11e5-9fb7-bc8ccdd91ea1'
p1296
sba(iclasses.clip
clip
p1297
(dp1298
S'color'
p1299
g1184
sS'moved'
p1300
I00
sS'video_fade_out'
p1301
I00
sS'keyframes'
p1302
(dp1303
g1189
(iclasses.keyframe
keyframe
p1304
(dp1305
g47
I0
sg48
F100
sg49
F100
sS'x'
F0
sS'y'
F0
sg50
F1
sg51
S'7868d0d2-ec75-11e5-9fb7-bc8ccdd91ea1'
p1306
sbsg1193
(iclasses.keyframe
keyframe
p1307
(dp1308
g47
I-1
sg48
F100
sg49
F100
sS'x'
F0
sS'y'
F0
sg50
F1
sg51
S'7868d578-ec75-11e5-9fb7-bc8ccdd91ea1'
p1309
sbssS'video_fade_out_amount'
p1310
F2
sS'audio_fade_out'
p1311
I00
sS'reversed'
p1312
I00
sS'speed'
p1313
F1
sS'fill'
p1314
I01
sS'audio_fade_in_amount'
p1315
F2
sS'position_on_track'
p1316
F1372.084697110904
sS'drag_y'
p1317
F39.5
sS'drag_x'
p1318
F17451.5
sS'play_audio'
p1319
I01
sS'audio_fade_out_amount'
p1320
F2
sS'max_length'
p1321
F221.05416666666667
sS'show_preview'
p1322
I00
sS'valign'
p1323
g1292
sS'video_fade_in'
p1324
I00
sS'audio_fade_in'
p1325
I00
sS'request_show_properties'
p1326
I00
sS'video_fade_in_amount'
p1327
F2
sS'parent'
p1328
g32
sS'composite'
p1329
I01
sS'start_time'
p1330
F62.01463622242909
sS'file_object'
p1331
g471
sS'distort'
p1332
I00
sS'volume'
p1333
F100
sS'effects'
p1334
(lp1335
sS'rotation'
p1336
F0
sS'is_timeline_scrolling'
p1337
I00
sS'thumb_location'
p1338
S'/home/olli/Ty\xc3\xb6p\xc3\xb6yt\xc3\xa4/thumbnail/hercules_-_hadesSkM0tzUwGXg_fmt43-orig_flv_9.png'
p1339
sS'name'
p1340
S'hercules_-_hades_in_the_underworld_h-SkM0tzUwGXg_fmt43-orig.flv'
p1341
sS'halign'
p1342
g1292
sS'play_video'
p1343
I01
sS'end_time'
p1344
F86.191472444858391
sS'unique_id'
p1345
S'af0fca1e-ec75-11e5-9eac-bc8ccdd91ea1'
p1346
sba(iclasses.clip
clip
p1347
(dp1348
S'color'
p1349
S'Gold'
p1350
sS'reversed'
p1351
I00
sS'video_fade_out'
p1352
I00
sS'keyframes'
p1353
(dp1354
S'start'
p1355
(iclasses.keyframe
keyframe
p1356
(dp1357
g47
I0
sg48
F100
sg49
F100
sS'x'
F0
sS'y'
F0
sg50
F1
sg51
S'0ef4b14a-ec78-11e5-a180-bc8ccdd91ea1'
p1358
sbsS'end'
p1359
(iclasses.keyframe
keyframe
p1360
(dp1361
g47
I-1
sg48
F100
sg49
F100
sS'x'
F0
sS'y'
F0
sg50
F1
sg51
S'0ef4b726-ec78-11e5-a180-bc8ccdd91ea1'
p1362
sbssS'video_fade_out_amount'
p1363
F2
sS'audio_fade_out'
p1364
I00
sS'speed'
p1365
F1
sS'fill'
p1366
I01
sS'audio_fade_in_amount'
p1367
F2
sS'position_on_track'
p1368
F1396.2615333333335
sS'drag_y'
p1369
F0
sS'drag_x'
p1370
F0
sS'play_audio'
p1371
I01
sS'audio_fade_out_amount'
p1372
F2
sS'max_length'
p1373
F300
sS'valign'
p1374
S'centre'
p1375
sS'video_fade_in'
p1376
I00
sS'audio_fade_in'
p1377
I00
sS'video_fade_in_amount'
p1378
F2
sg89
g32
sS'composite'
p1379
I01
sS'moved'
p1380
I00
sS'start_time'
p1381
F0
sS'file_object'
p1382
(iclasses.files
OpenShotFile
p1383
(dp1384
g81
F14999
sg82
S''
sg84
I0
sg85
S'/home/olli/Ty\xc3\xb6p\xc3\xb6yt\xc3\xa4/thumbnail/0b1ad284-ec78-11e5-a180-bc8ccdd91ea1_png_1.png'
p1385
sg87
S'/home/olli/Kuvat/Valinta_022.png'
p1386
sg89
Nsg90
S'image'
p1387
sg92
I0
sg48
I298
sg93
g1
sg49
I567
sg94
F300
sg95
F29.970029970029969
sg96
I1
sg97
S''
sg99
(F29.970029970029969
I0
tp1388
sg101
S''
sg51
S'0b24287a-ec78-11e5-a180-bc8ccdd91ea1'
p1389
sbsS'distort'
p1390
I00
sS'volume'
p1391
F100
sS'effects'
p1392
(lp1393
sS'rotation'
p1394
F0
sS'is_timeline_scrolling'
p1395
I00
sg85
S'/home/olli/Ty\xc3\xb6p\xc3\xb6yt\xc3\xa4/thumbnail/0b1ad284-ec78-11e5-a180-bc8ccdd91ea1_png_1.png'
p1396
sg87
S'Valinta_022.png'
p1397
sS'halign'
p1398
g1375
sS'play_video'
p1399
I01
sS'end_time'
p1400
F7
sg51
S'0ef4a696-ec78-11e5-a180-bc8ccdd91ea1'
p1401
sba(iclasses.clip
clip
p1402
(dp1403
g1349
g1350
sg1351
I00
sg1352
I00
sg1353
(dp1404
g1355
(iclasses.keyframe
keyframe
p1405
(dp1406
g49
F100
sg50
F1
sS'y'
F0
sS'x'
F0
sg47
I0
sg51
S'1a46b778-ec78-11e5-a180-bc8ccdd91ea1'
p1407
sg48
F100
sbsg1359
(iclasses.keyframe
keyframe
p1408
(dp1409
g49
F100
sg50
F1
sS'y'
F0
sS'x'
F0
sg47
I-1
sg51
S'1a46bd40-ec78-11e5-a180-bc8ccdd91ea1'
p1410
sg48
F100
sbssg1363
F2
sg1364
I00
sg1365
F1
sg1366
I01
sg1367
F2
sg1368
F1403.2615333333335
sg1369
F36.075000000000003
sg1370
F565.30583333333198
sg1371
I01
sg1372
F2
sg1373
F300
sg1374
S'centre'
p1411
sg1376
I00
sg1377
I00
sS'request_show_properties'
p1412
I00
sg1378
F2
sg89
g32
sg1379
I01
sg1380
I00
sg1381
F0
sg1382
g626
sg1390
I00
sg1391
F100
sg1392
(lp1413
sg1394
F0
sg1395
I00
sg85
S'/home/olli/Ty\xc3\xb6p\xc3\xb6yt\xc3\xa4/thumbnail/4ba43de6-eba5-11e5-90d2-bc8ccdd91ea1_png_1.png'
p1414
sg87
S'Valinta_009.png'
p1415
sg1398
S'centre'
p1416
sg1399
I01
sg1400
F4
sg51
S'1a46afe4-ec78-11e5-a180-bc8ccdd91ea1'
p1417
sba(iclasses.clip
clip
p1418
(dp1419
g1349
g1350
sg1351
I00
sg1352
I00
sg1353
(dp1420
g1355
(iclasses.keyframe
keyframe
p1421
(dp1422
g49
F100
sg50
F1
sS'y'
F0
sS'x'
F0
sg47
I0
sg51
S'5e1b4f90-ec78-11e5-a180-bc8ccdd91ea1'
p1423
sg48
F100
sbsg1359
(iclasses.keyframe
keyframe
p1424
(dp1425
g49
F100
sg50
F1
sS'y'
F0
sS'x'
F0
sg47
I-1
sg51
S'5e1b58e6-ec78-11e5-a180-bc8ccdd91ea1'
p1426
sg48
F100
sbssg1363
F2
sg1364
I00
sg1365
F1
sg1366
I01
sg1367
F2
sg1368
F1407.2615333333335
sg1369
F29.5
sg1370
F18680.5
sg1371
I01
sg1372
F2
sg1373
F140.80733333333333
sS'show_preview'
p1427
I00
sg1374
g1375
sg1376
I00
sg1377
I00
sg1412
I00
sg1378
F2
sg89
g32
sg1379
I01
sg1380
I01
sg1381
F84.218466666666473
sg1382
(iclasses.files
OpenShotFile
p1428
(dp1429
g81
F4219
sg82
S'Vorbis'
p1430
sg84
I0
sg85
S'/home/olli/Ty\xc3\xb6p\xc3\xb6yt\xc3\xa4/thumbnail/59d9ff08-ec78-11e5-a180-bc8ccdd91ea1_flv_1.png'
p1431
sg87
S'/home/olli/Ty\xc3\xb6p\xc3\xb6yt\xc3\xa4/montako_tuhatta_on_miljoonassa-Yw2vmTT2yI0_fmt43-orig.flv'
p1432
sg89
Nsg90
S'video'
p1433
sg92
I0
sg48
I360
sg93
g1
sg49
I476
sg94
F140.80733333333333
sg95
F29.970029970029969
sg96
I1
sg97
S'On2 VP8'
p1434
sg99
(F29.970029970029969
I0
tp1435
sg101
S''
sg51
S'59e6fb0e-ec78-11e5-a180-bc8ccdd91ea1'
p1436
sbsg1390
I00
sg1391
F100
sg1392
(lp1437
sg1394
F0
sg1395
I00
sg85
S'/home/olli/Ty\xc3\xb6p\xc3\xb6yt\xc3\xa4/thumbnail/montako_tuhatta_on_miljoonassa-Yw2vmTT2yI0_fmt43-orig_flv_5.png'
p1438
sg87
S'montako_tuhatta_on_miljoonassa-Yw2vmTT2yI0_fmt43-orig.flv'
p1439
sg1398
g1375
sg1399
I01
sg1400
F133.97816666666654
sg51
S'02d8909c-ec79-11e5-a180-bc8ccdd91ea1'
p1440
sba(iclasses.clip
clip
p1441
(dp1442
g1349
g1350
sg1351
I00
sg1352
I00
sg1353
(dp1443
g1355
(iclasses.keyframe
keyframe
p1444
(dp1445
g49
F100
sg50
F1
sS'y'
F0
sS'x'
F0
sg47
I0
sg51
S'4c2124e4-ec79-11e5-a180-bc8ccdd91ea1'
p1446
sg48
F100
sbsg1359
(iclasses.keyframe
keyframe
p1447
(dp1448
g49
F100
sg50
F1
sS'y'
F0
sS'x'
F0
sg47
I-1
sg51
S'4c212e58-ec79-11e5-a180-bc8ccdd91ea1'
p1449
sg48
F100
sbssg1363
F2
sg1364
I00
sg1365
F1
sg1366
I01
sg1367
F2
sg1368
F1457.0212333333336
sg1369
F25.074999999999999
sg1370
F632.30958333333183
sg1371
I01
sg1372
F2
sg1373
F300
sg1427
I00
sg1374
S'centre'
p1450
sg1376
I00
sg1377
I00
sg1412
I00
sg1378
F2
sg89
g32
sg1379
I01
sg1380
I00
sg1381
F0
sg1382
g691
sg1390
I00
sg1391
F100
sg1392
(lp1451
sg1394
F0
sg1395
I00
sg85
S'/home/olli/Ty\xc3\xb6p\xc3\xb6yt\xc3\xa4/thumbnail/a179b7c8-ebaa-11e5-bfbb-bc8ccdd91ea1_png_1.png'
p1452
sg87
S'Valinta_010.png'
p1453
sg1398
S'centre'
p1454
sg1399
I01
sg1400
F4
sg51
S'4c2116c0-ec79-11e5-a180-bc8ccdd91ea1'
p1455
sba(iclasses.clip
clip
p1456
(dp1457
g1349
g1350
sg1351
I00
sg1352
I00
sg1353
(dp1458
g1355
(iclasses.keyframe
keyframe
p1459
(dp1460
g49
F100
sg50
F1
sS'y'
F0
sS'x'
F0
sg47
I0
sg51
S'9a6f8258-ec79-11e5-a180-bc8ccdd91ea1'
p1461
sg48
F100
sbsg1359
(iclasses.keyframe
keyframe
p1462
(dp1463
g49
F100
sg50
F1
sS'y'
F0
sS'x'
F0
sg47
I-1
sg51
S'9a6f8b90-ec79-11e5-a180-bc8ccdd91ea1'
p1464
sg48
F100
sbssg1363
F2
sg1364
I00
sg1365
F1
sg1366
I01
sg1367
F2
sg1368
F1461.0212333333336
sg1369
F42.075000000000003
sg1370
F599.30958333333183
sg1371
I01
sg1372
F2
sg1373
F300
sg1374
S'centre'
p1465
sg1376
I00
sg1377
I00
sg1412
I00
sg1378
F2
sg89
g32
sg1379
I01
sg1380
I00
sg1381
F0
sg1382
(iclasses.files
OpenShotFile
p1466
(dp1467
g81
F14999
sg82
S''
sg84
I0
sg85
S'/home/olli/Ty\xc3\xb6p\xc3\xb6yt\xc3\xa4/thumbnail/980eaa48-ec79-11e5-a180-bc8ccdd91ea1_png_1.png'
p1468
sg87
S'/home/olli/Kuvat/Valinta_023.png'
p1469
sg89
Nsg90
g1387
sg92
I0
sg48
I463
sg93
g1
sg49
I593
sg94
F300
sg95
F29.970029970029969
sg96
I1
sg97
S''
sg99
(F29.970029970029969
I0
tp1470
sg101
S''
sg51
S'981880a4-ec79-11e5-a180-bc8ccdd91ea1'
p1471
sbsg1390
I00
sg1391
F100
sg1392
(lp1472
sg1394
F0
sg1395
I00
sg85
S'/home/olli/Ty\xc3\xb6p\xc3\xb6yt\xc3\xa4/thumbnail/980eaa48-ec79-11e5-a180-bc8ccdd91ea1_png_1.png'
p1473
sg87
S'Valinta_023.png'
p1474
sg1398
S'centre'
p1475
sg1399
I01
sg1400
F10
sg51
S'9a6f6fde-ec79-11e5-a180-bc8ccdd91ea1'
p1476
sba(iclasses.clip
clip
p1477
(dp1478
g1349
g1350
sg1351
I00
sg1352
I00
sg1353
(dp1479
g1355
(iclasses.keyframe
keyframe
p1480
(dp1481
g49
F100
sg50
F1
sS'y'
F0
sS'x'
F0
sg47
I0
sg51
S'6a1060f4-ec7a-11e5-a180-bc8ccdd91ea1'
p1482
sg48
F100
sbsg1359
(iclasses.keyframe
keyframe
p1483
(dp1484
g49
F100
sg50
F1
sS'y'
F0
sS'x'
F0
sg47
I-1
sg51
S'6a106518-ec7a-11e5-a180-bc8ccdd91ea1'
p1485
sg48
F100
sbssg1363
F2
sg1364
I00
sg1365
F1
sg1366
I01
sg1367
F2
sg1368
F1471.0212333333336
sg1369
F34.075000000000003
sg1370
F803.30958333333183
sg1371
I01
sg1372
F2
sg1373
F300
sg1374
S'centre'
p1486
sg1376
I00
sg1377
I00
sg1412
I00
sg1378
F2
sg89
g32
sg1379
I01
sg1380
I00
sg1381
F0
sg1382
(iclasses.files
OpenShotFile
p1487
(dp1488
g81
F14999
sg82
S''
sg84
I0
sg85
S'/home/olli/Ty\xc3\xb6p\xc3\xb6yt\xc3\xa4/thumbnail/685a907c-ec7a-11e5-a180-bc8ccdd91ea1_png_1.png'
p1489
sg87
S'/home/olli/Kuvat/Valinta_024.png'
p1490
sg89
Nsg90
g1387
sg92
I0
sg48
I407
sg93
g1
sg49
I520
sg94
F300
sg95
F29.970029970029969
sg96
I1
sg97
S''
sg99
(F29.970029970029969
I0
tp1491
sg101
S''
sg51
S'68630c02-ec7a-11e5-a180-bc8ccdd91ea1'
p1492
sbsg1390
I00
sg1391
F100
sg1392
(lp1493
sg1394
F0
sg1395
I00
sg85
S'/home/olli/Ty\xc3\xb6p\xc3\xb6yt\xc3\xa4/thumbnail/685a907c-ec7a-11e5-a180-bc8ccdd91ea1_png_1.png'
p1494
sg87
S'Valinta_024.png'
p1495
sg1398
S'centre'
p1496
sg1399
I01
sg1400
F10
sg51
S'6a10599c-ec7a-11e5-a180-bc8ccdd91ea1'
p1497
sba(iclasses.clip
clip
p1498
(dp1499
g1349
g1350
sg1351
I00
sg1352
I00
sg1353
(dp1500
g1355
(iclasses.keyframe
keyframe
p1501
(dp1502
g47
I0
sg48
F100
sg49
F100
sS'x'
F0
sS'y'
F0
sg50
F1
sg51
S'297efd10-ec7b-11e5-a180-bc8ccdd91ea1'
p1503
sbsg1359
(iclasses.keyframe
keyframe
p1504
(dp1505
g47
I-1
sg48
F100
sg49
F100
sS'x'
F0
sS'y'
F0
sg50
F1
sg51
S'297f0670-ec7b-11e5-a180-bc8ccdd91ea1'
p1506
sbssg1363
F2
sg1364
I00
sg1365
F1
sg1366
I01
sg1367
F2
sg1368
F1481.0212333333336
sg1369
F0
sg1370
F0
sg1371
I01
sg1372
F2
sg1373
F300
sg1374
g1375
sg1376
I00
sg1377
I00
sg1378
F2
sg89
g32
sg1379
I01
sg1380
I00
sg1381
F0
sg1382
(iclasses.files
OpenShotFile
p1507
(dp1508
g81
F14999
sg82
S''
sg84
I0
sg85
S'/home/olli/Ty\xc3\xb6p\xc3\xb6yt\xc3\xa4/thumbnail/281fcb48-ec7b-11e5-a180-bc8ccdd91ea1_png_1.png'
p1509
sg87
S'/home/olli/Kuvat/Valinta_025.png'
p1510
sg89
Nsg90
g1387
sg92
I0
sg48
I398
sg93
g1
sg49
I617
sg94
F300
sg95
F29.970029970029969
sg96
I1
sg97
S''
sg99
(F29.970029970029969
I0
tp1511
sg101
S''
sg51
S'28270e44-ec7b-11e5-a180-bc8ccdd91ea1'
p1512
sbsg1390
I00
sg1391
F100
sg1392
(lp1513
sg1394
F0
sg1395
I00
sg85
S'/home/olli/Ty\xc3\xb6p\xc3\xb6yt\xc3\xa4/thumbnail/281fcb48-ec7b-11e5-a180-bc8ccdd91ea1_png_1.png'
p1514
sg87
S'Valinta_025.png'
p1515
sg1398
g1375
sg1399
I01
sg1400
F7
sg51
S'297eee1a-ec7b-11e5-a180-bc8ccdd91ea1'
p1516
sba(iclasses.clip
clip
p1517
(dp1518
g1349
g1350
sg1351
I00
sg1352
I00
sg1353
(dp1519
g1355
(iclasses.keyframe
keyframe
p1520
(dp1521
g47
I0
sg48
F100
sg49
F100
sS'x'
F0
sS'y'
F0
sg50
F1
sg51
S'016f7060-ec7c-11e5-a180-bc8ccdd91ea1'
p1522
sbsg1359
(iclasses.keyframe
keyframe
p1523
(dp1524
g47
I-1
sg48
F100
sg49
F100
sS'x'
F0
sS'y'
F0
sg50
F1
sg51
S'016f7542-ec7c-11e5-a180-bc8ccdd91ea1'
p1525
sbssg1363
F2
sg1364
I00
sg1365
F1
sg1366
I01
sg1367
F2
sg1368
F1488.0212333333336
sg1369
F0
sg1370
F0
sg1371
I01
sg1372
F2
sg1373
F300
sg1374
g1375
sg1376
I00
sg1377
I00
sg1378
F2
sg89
g32
sg1379
I01
sg1380
I00
sg1381
F0
sg1382
(iclasses.files
OpenShotFile
p1526
(dp1527
g81
F14999
sg82
S''
sg84
I0
sg85
S'/home/olli/Ty\xc3\xb6p\xc3\xb6yt\xc3\xa4/thumbnail/f99a87f8-ec7b-11e5-a180-bc8ccdd91ea1_png_1.png'
p1528
sg87
S'/home/olli/Kuvat/Valinta_026.png'
p1529
sg89
Nsg90
g1387
sg92
I0
sg48
I435
sg93
g1
sg49
I613
sg94
F300
sg95
F29.970029970029969
sg96
I1
sg97
S''
sg99
(F29.970029970029969
I0
tp1530
sg101
S''
sg51
S'f9a3bbf2-ec7b-11e5-a180-bc8ccdd91ea1'
p1531
sbsg1390
I00
sg1391
F100
sg1392
(lp1532
sg1394
F0
sg1395
I00
sg85
S'/home/olli/Ty\xc3\xb6p\xc3\xb6yt\xc3\xa4/thumbnail/f99a87f8-ec7b-11e5-a180-bc8ccdd91ea1_png_1.png'
p1533
sg87
S'Valinta_026.png'
p1534
sg1398
g1375
sg1399
I01
sg1400
F7
sg51
S'016f6796-ec7c-11e5-a180-bc8ccdd91ea1'
p1535
sba(iclasses.clip
clip
p1536
(dp1537
g1349
g1350
sg1351
I00
sg1352
I00
sg1353
(dp1538
g1355
(iclasses.keyframe
keyframe
p1539
(dp1540
g49
F100
sg50
F1
sS'y'
F0
sS'x'
F0
sg47
I0
sg51
S'4c8c5032-ec7b-11e5-a180-bc8ccdd91ea1'
p1541
sg48
F100
sbsg1359
(iclasses.keyframe
keyframe
p1542
(dp1543
g49
F100
sg50
F1
sS'y'
F0
sS'x'
F0
sg47
I-1
sg51
S'4c8c5988-ec7b-11e5-a180-bc8ccdd91ea1'
p1544
sg48
F100
sbssg1363
F2
sg1364
I00
sg1365
F1
sg1366
I01
sg1367
F2
sg1368
F1495.0212333333336
sg1369
F38.075000000000003
sg1370
F18647.5
sg1371
I01
sg1372
F2
sg1373
F300
sg1427
I00
sg1374
S'centre'
p1545
sg1376
I00
sg1377
I00
sg1412
I00
sg1378
F2
sg89
g32
sg1379
I01
sg1380
I01
sg1381
F0
sg1382
g942
sg1390
I00
sg1391
F100
sg1392
(lp1546
sg1394
F0
sg1395
I00
sg85
S'/home/olli/Ty\xc3\xb6p\xc3\xb6yt\xc3\xa4/thumbnail/acc9dfca-ebb1-11e5-b62c-bc8ccdd91ea1_png_1.png'
p1547
sg87
S'Valinta_016.png'
p1548
sg1398
S'centre'
p1549
sg1399
I01
sg1400
F4
sg51
S'4c8c3d9a-ec7b-11e5-a180-bc8ccdd91ea1'
p1550
sba(iclasses.clip
clip
p1551
(dp1552
g1349
g1350
sg1351
I00
sg1352
I00
sg1353
(dp1553
g1355
(iclasses.keyframe
keyframe
p1554
(dp1555
g49
F100
sS'x'
F0
sS'y'
F0
sg50
F1
sg47
I0
sg51
S'0bf22352-ec7c-11e5-a180-bc8ccdd91ea1'
p1556
sg48
F100
sbsg1359
(iclasses.keyframe
keyframe
p1557
(dp1558
g49
F100
sS'x'
F0
sS'y'
F0
sg50
F1
sg47
I-1
sg51
S'0bf22cb2-ec7c-11e5-a180-bc8ccdd91ea1'
p1559
sg48
F100
sbssg1363
F2
sg1364
I00
sg1365
F1
sg1366
I01
sg1367
F2
sg1368
F1499.0212333333336
sg1369
F49.5
sg1370
F18974.5
sg1371
I01
sg1372
F2
sg1373
F286.21926666666667
sg1427
I00
sg1374
g1375
sg1376
I00
sg1377
I00
sg1412
I00
sg1378
F2
sg89
g32
sg1379
I01
sg1380
I00
sg1381
F203.15253333333271
sg1382
(iclasses.files
OpenShotFile
p1560
(dp1561
g81
F8577
sg82
S'Vorbis'
p1562
sg84
I0
sg85
S'/home/olli/Ty\xc3\xb6p\xc3\xb6yt\xc3\xa4/thumbnail/70cc9498-ec7b-11e5-a180-bc8ccdd91ea1_flv_1.png'
p1563
sg87
S'/home/olli/Ty\xc3\xb6p\xc3\xb6yt\xc3\xa4/the_little_mermaid-uVyAGW4tHeI_fmt43-orig.flv'
p1564
sg89
Nsg90
g1433
sg92
I0
sg48
I360
sg93
g1
sg49
I480
sg94
F286.21926666666667
sg95
F29.970029970029969
sg96
I1
sg97
S'On2 VP8'
p1565
sg99
(F29.970029970029969
I0
tp1566
sg101
S''
sg51
S'70d8e9aa-ec7b-11e5-a180-bc8ccdd91ea1'
p1567
sbsg1390
I00
sg1391
F100
sg1392
(lp1568
sg1394
F0
sg1395
I00
sg85
S'/home/olli/Ty\xc3\xb6p\xc3\xb6yt\xc3\xa4/thumbnail/the_little_mermaid-uVyAGW4tHeI_fmt43-orig_flv_3.png'
p1569
sg87
S'the_little_mermaid_-_the_sunken_ship-uVyAGW4tHeI_fmt43-orig.flv'
p1570
sg1398
g1375
sg1399
I01
sg1400
F221.94759999999906
sg51
S'456c57ba-ec7c-11e5-a180-bc8ccdd91ea1'
p1571
sba(iclasses.clip
clip
p1572
(dp1573
g1349
g1350
sg1351
I00
sg1352
I00
sg1353
(dp1574
g1355
(iclasses.keyframe
keyframe
p1575
(dp1576
g49
F100
sg50
F1
sS'y'
F0
sS'x'
F0
sg47
I0
sg51
S'77fcebcc-ec7c-11e5-a180-bc8ccdd91ea1'
p1577
sg48
F100
sbsg1359
(iclasses.keyframe
keyframe
p1578
(dp1579
g49
F100
sg50
F1
sS'y'
F0
sS'x'
F0
sg47
I-1
sg51
S'77fcf518-ec7c-11e5-a180-bc8ccdd91ea1'
p1580
sg48
F100
sbssg1363
F2
sg1364
I00
sg1365
F1
sg1366
I01
sg1367
F2
sg1368
F1517.8162999999997
sg1369
F42.075000000000003
sg1370
F18989.871250000004
sg1371
I01
sg1372
F2
sg1373
F4.2709333333333337
sg1427
I00
sg1374
g1375
sg1376
I00
sg1377
I00
sg1412
I00
sg1378
F2
sg89
g32
sg1379
I01
sg1380
I00
sg1381
F0.26993333333348346
sg1382
(iclasses.files
OpenShotFile
p1581
(dp1582
g81
F127
sg82
S'Vorbis'
p1583
sg84
I0
sg85
S'/home/olli/Ty\xc3\xb6p\xc3\xb6yt\xc3\xa4/thumbnail/72b7ef86-ec7c-11e5-a180-bc8ccdd91ea1_flv_1.png'
p1584
sg87
S'/home/olli/Ty\xc3\xb6p\xc3\xb6yt\xc3\xa4/omg_who_the_hell_cares_-lWsuokWmEZI_fmt43-orig.flv'
p1585
sg89
Nsg90
g1433
sg92
I0
sg48
I360
sg93
g1
sg49
I482
sg94
F4.2709333333333337
sg95
F29.970029970029969
sg96
I1
sg97
S'On2 VP8'
p1586
sg99
(F29.970029970029969
I0
tp1587
sg101
S''
sg51
S'72c6f21a-ec7c-11e5-a180-bc8ccdd91ea1'
p1588
sbsg1390
I00
sg1391
F100
sg1392
(lp1589
sg1394
F0
sg1395
I00
sg85
S'/home/olli/Ty\xc3\xb6p\xc3\xb6yt\xc3\xa4/thumbnail/omg_who_the_hell_cares_-lWsuokWmEZI_fmt43-orig_flv_2.png'
p1590
sg87
S'family_guy_-_omg_who_the_hell_cares_-lWsuokWmEZI_fmt43-orig.flv'
p1591
sg1398
g1375
sg1399
I01
sg1400
F4.2709333333333337
sg51
S'99d770e6-ec7c-11e5-a180-bc8ccdd91ea1'
p1592
sba(iclasses.clip
clip
p1593
(dp1594
g1349
g1350
sg1351
I00
sg1352
I00
sg1353
(dp1595
g1355
(iclasses.keyframe
keyframe
p1596
(dp1597
g49
F100
sg50
F1
sS'y'
F0
sS'x'
F0
sg47
I0
sg51
S'f43dc4d6-ec7c-11e5-a180-bc8ccdd91ea1'
p1598
sg48
F100
sbsg1359
(iclasses.keyframe
keyframe
p1599
(dp1600
g49
F100
sg50
F1
sS'y'
F0
sS'x'
F0
sg47
I-1
sg51
S'f43dc99a-ec7c-11e5-a180-bc8ccdd91ea1'
p1601
sg48
F100
sbssg1363
F2
sg1364
I00
sg1365
F1
sg1366
I01
sg1367
F2
sg1368
F1521.7832999999996
sg1369
F20.5
sg1370
F19046.5
sg1371
I01
sg1372
F2
sg1373
F300
sg1427
I00
sg1374
S'centre'
p1602
sg1376
I00
sg1377
I00
sg1412
I00
sg1378
F2
sg89
g32
sg1379
I01
sg1380
I00
sg1381
F0
sg1382
(iclasses.files
OpenShotFile
p1603
(dp1604
g81
F14999
sg82
S''
sg84
I0
sg85
S'/home/olli/Ty\xc3\xb6p\xc3\xb6yt\xc3\xa4/thumbnail/eedcf5d4-ec7c-11e5-a180-bc8ccdd91ea1_png_1.png'
p1605
sg87
S'/home/olli/Kuvat/Valinta_027.png'
p1606
sg89
Nsg90
g1387
sg92
I0
sg48
I351
sg93
g1
sg49
I599
sg94
F300
sg95
F29.970029970029969
sg96
I1
sg97
S''
sg99
(F29.970029970029969
I0
tp1607
sg101
S''
sg51
S'eee46058-ec7c-11e5-a180-bc8ccdd91ea1'
p1608
sbsg1390
I00
sg1391
F100
sg1392
(lp1609
sg1394
F0
sg1395
I00
sg85
S'/home/olli/Ty\xc3\xb6p\xc3\xb6yt\xc3\xa4/thumbnail/eedcf5d4-ec7c-11e5-a180-bc8ccdd91ea1_png_1.png'
p1610
sg87
S'Valinta_027.png'
p1611
sg1398
S'centre'
p1612
sg1399
I01
sg1400
F4
sg51
S'f43dbbe4-ec7c-11e5-a180-bc8ccdd91ea1'
p1613
sba(iclasses.clip
clip
p1614
(dp1615
g1349
g1350
sg1351
I00
sg1352
I00
sg1353
(dp1616
g1355
(iclasses.keyframe
keyframe
p1617
(dp1618
g49
F100
sg50
F1
sS'y'
F0
sS'x'
F0
sg47
I0
sg51
S'c3f0822c-ec7d-11e5-a180-bc8ccdd91ea1'
p1619
sg48
F100
sbsg1359
(iclasses.keyframe
keyframe
p1620
(dp1621
g49
F100
sg50
F1
sS'y'
F0
sS'x'
F0
sg47
I-1
sg51
S'c3f08dc6-ec7d-11e5-a180-bc8ccdd91ea1'
p1622
sg48
F100
sbssg1363
F2
sg1364
I00
sg1365
F1
sg1366
I01
sg1367
F2
sg1368
F1525.7832999999996
sg1369
F44.075000000000003
sg1370
F646.78375000000597
sg1371
I01
sg1372
F2
sg1373
F300
sg1374
S'centre'
p1623
sg1376
I00
sg1377
I00
sg1412
I00
sg1378
F2
sg89
g32
sg1379
I01
sg1380
I00
sg1381
F0
sg1382
(iclasses.files
OpenShotFile
p1624
(dp1625
g81
F14999
sg82
S''
sg84
I0
sg85
S'/home/olli/Ty\xc3\xb6p\xc3\xb6yt\xc3\xa4/thumbnail/bec240b0-ec7d-11e5-a180-bc8ccdd91ea1_png_1.png'
p1626
sg87
S'/home/olli/Kuvat/Valinta_028.png'
p1627
sg89
Nsg90
g1387
sg92
I0
sg48
I355
sg93
g1
sg49
I593
sg94
F300
sg95
F29.970029970029969
sg96
I1
sg97
S''
sg99
(F29.970029970029969
I0
tp1628
sg101
S''
sg51
S'bed56604-ec7d-11e5-a180-bc8ccdd91ea1'
p1629
sbsg1390
I00
sg1391
F100
sg1392
(lp1630
sg1394
F0
sg1395
I00
sg85
S'/home/olli/Ty\xc3\xb6p\xc3\xb6yt\xc3\xa4/thumbnail/bec240b0-ec7d-11e5-a180-bc8ccdd91ea1_png_1.png'
p1631
sg87
S'Valinta_028.png'
p1632
sg1398
S'centre'
p1633
sg1399
I01
sg1400
F10
sg51
S'c3f06cf6-ec7d-11e5-a180-bc8ccdd91ea1'
p1634
sba(iclasses.clip
clip
p1635
(dp1636
g1349
g1350
sg1351
I00
sg1352
I00
sg1353
(dp1637
g1355
(iclasses.keyframe
keyframe
p1638
(dp1639
g49
F100
sS'x'
F0
sS'y'
F0
sg50
F1
sg47
I0
sg51
g1577
sg48
F100
sbsg1359
(iclasses.keyframe
keyframe
p1640
(dp1641
g49
F100
sS'x'
F0
sS'y'
F0
sg50
F1
sg47
I-1
sg51
g1580
sg48
F100
sbssg1363
F2
sg1364
I00
sg1365
F1
sg1366
I01
sg1367
F2
sg1368
F1535.7832999999996
sg1369
F37.5
sg1370
F19043.5
sg1371
I01
sg1372
F2
sg1373
F4.2709333333333337
sg1427
I00
sg1374
g1375
sg1376
I00
sg1377
I00
sg1412
I00
sg1378
F2
sg89
g32
sg1379
I01
sg1380
I01
sg1381
F0.26993333333348346
sg1382
g1581
sg1390
I00
sg1391
F100
sg1392
(lp1642
sg1394
F0
sg1395
I00
sg85
S'/home/olli/Ty\xc3\xb6p\xc3\xb6yt\xc3\xa4/thumbnail/omg_who_the_hell_cares_-lWsuokWmEZI_fmt43-orig_flv_3.png'
p1643
sg87
g1591
sg1398
g1375
sg1399
I01
sg1400
F4.2709333333333337
sg51
S'1f7599a6-ec7f-11e5-a180-bc8ccdd91ea1'
p1644
sba(iclasses.clip
clip
p1645
(dp1646
g1349
g1350
sg1351
I00
sg1352
I00
sg1353
(dp1647
g1355
(iclasses.keyframe
keyframe
p1648
(dp1649
g49
F100
sg50
F1
sS'y'
F0
sS'x'
F0
sg47
I0
sg51
g1423
sg48
F100
sbsg1359
(iclasses.keyframe
keyframe
p1650
(dp1651
g49
F100
sg50
F1
sS'y'
F0
sS'x'
F0
sg47
I-1
sg51
g1426
sg48
F100
sbssg1363
F2
sg1364
I00
sg1365
F1
sg1366
I01
sg1367
F2
sg1368
F1541.2397000000001
sg1369
F40.5
sg1370
F19272.5
sg1371
I01
sg1372
F2
sg1373
F140.80733333333333
sg1374
g1375
sg1376
I00
sg1377
I00
sg1412
I00
sg1378
F2
sg89
g32
sg1379
I01
sg1380
I00
sg1381
F133.97816666666654
sg1382
g1428
sg1390
I00
sg1391
F100
sg1392
(lp1652
sg1394
F0
sg1395
I00
sg85
S'/home/olli/Ty\xc3\xb6p\xc3\xb6yt\xc3\xa4/thumbnail/montako_tuhatta_on_miljoonassa-Yw2vmTT2yI0_fmt43-orig_flv_2.png'
p1653
sg87
g1439
sg1398
g1375
sg1399
I01
sg1400
F133.97816666666654
sg51
S'd0511356-ec78-11e5-a180-bc8ccdd91ea1'
p1654
sba(iclasses.clip
clip
p1655
(dp1656
g1349
g1350
sg1351
I00
sg1352
I00
sg1353
(dp1657
g1355
(iclasses.keyframe
keyframe
p1658
(dp1659
g49
F100
sg50
F1
sS'y'
F0
sS'x'
F0
sg47
I0
sg51
S'e3182c40-ec7d-11e5-a180-bc8ccdd91ea1'
p1660
sg48
F100
sbsg1359
(iclasses.keyframe
keyframe
p1661
(dp1662
g49
F100
sg50
F1
sS'y'
F0
sS'x'
F0
sg47
I-1
sg51
S'e3183582-ec7d-11e5-a180-bc8ccdd91ea1'
p1663
sg48
F100
sbssg1363
F2
sg1364
I00
sg1365
F1
sg1366
I01
sg1367
F2
sg1368
F1543.4125333333332
sg1369
F53.075000000000003
sg1370
F19229.075000000001
sg1371
I01
sg1372
F2
sg1373
F300
sg1427
I00
sg1374
S'centre'
p1664
sg1376
I00
sg1377
I00
sg1412
I00
sg1378
F2
sg89
g32
sg1379
I01
sg1380
I01
sg1381
F0
sg1382
g1052
sg1390
I00
sg1391
F100
sg1392
(lp1665
sg1394
F0
sg1395
I00
sg85
S'/home/olli/Ty\xc3\xb6p\xc3\xb6yt\xc3\xa4/thumbnail/f849d9de-ebaa-11e5-bfbb-bc8ccdd91ea1_png_1.png'
p1666
sg87
S'Valinta_011.png'
p1667
sg1398
S'centre'
p1668
sg1399
I01
sg1400
F4
sg51
S'e3181d9a-ec7d-11e5-a180-bc8ccdd91ea1'
p1669
sba(iclasses.clip
clip
p1670
(dp1671
g1349
g1350
sg1351
I00
sg1352
I00
sg1353
(dp1672
g1355
(iclasses.keyframe
keyframe
p1673
(dp1674
g49
F100
sS'x'
F0
sS'y'
F0
sg50
F1
sg47
I0
sg51
S'f961a9fe-ec7d-11e5-a180-bc8ccdd91ea1'
p1675
sg48
F100
sbsg1359
(iclasses.keyframe
keyframe
p1676
(dp1677
g49
F100
sS'x'
F0
sS'y'
F0
sg50
F1
sg47
I-1
sg51
S'f961b386-ec7d-11e5-a180-bc8ccdd91ea1'
p1678
sg48
F100
sbssg1363
F2
sg1364
I00
sg1365
F1
sg1366
I01
sg1367
F2
sg1368
F1547.4125333333332
sg1369
F0
sg1370
F0
sg1371
I01
sg1372
F2
sg1373
F140.8407
sg1374
g1375
sg1376
I00
sg1377
I00
sg1378
F2
sg89
g32
sg1379
I01
sg1380
I00
sg1381
F29.645933333333915
sg1382
g128
sg1390
I00
sg1391
F100
sg1392
(lp1679
sg1394
F0
sg1395
I00
sg85
S'/home/olli/Ty\xc3\xb6p\xc3\xb6yt\xc3\xa4/thumbnail/taparikollinen_-dN-jralLzrc_fmt135-orig_mp4_8.png'
p1680
sg87
S'taparikollinen_-dN-jralLzrc_fmt135-orig.mp4'
p1681
sg1398
g1375
sg1399
I01
sg1400
F29.384300000000394
sg51
S'38e236de-ec7e-11e5-a180-bc8ccdd91ea1'
p1682
sba(iclasses.clip
clip
p1683
(dp1684
g1349
g1350
sg1351
I00
sg1352
I00
sg1353
(dp1685
g1355
(iclasses.keyframe
keyframe
p1686
(dp1687
g49
F100
sS'x'
F0
sS'y'
F0
sg50
F1
sg47
I0
sg51
g1675
sg48
F100
sbsg1359
(iclasses.keyframe
keyframe
p1688
(dp1689
g49
F100
sS'x'
F0
sS'y'
F0
sg50
F1
sg47
I-1
sg51
g1678
sg48
F100
sbssg1363
F2
sg1364
I00
sg1365
F1
sg1366
I01
sg1367
F2
sg1368
F1547.4125333333332
sg1369
F59.5
sg1370
F19344.5
sg1371
I01
sg1372
F2
sg1373
F140.8407
sg1374
g1375
sg1376
I00
sg1377
I00
sg1412
I00
sg1378
F2
sg89
g32
sg1379
I01
sg1380
I00
sg1381
F29.645933333333915
sg1382
g128
sg1390
I00
sg1391
F100
sg1392
(lp1690
sg1394
F0
sg1395
I00
sg85
S'/home/olli/Ty\xc3\xb6p\xc3\xb6yt\xc3\xa4/thumbnail/taparikollinen_-dN-jralLzrc_fmt135-orig_mp4_9.png'
p1691
sg87
g1681
sg1398
g1375
sg1399
I01
sg1400
F29.645933333333915
sg51
S'3ad0dda6-ec7e-11e5-a180-bc8ccdd91ea1'
p1692
sbasg87
S'Raita 3'
p1693
sg89
g20
sg1371
I01
sS'y_top'
p1694
I6
sg1399
I01
sS'y_bottom'
p1695
I65
sS'x'
I10
sS'transitions'
p1696
(lp1697
(iclasses.transition
transition
p1698
(dp1699
g563
F88.599999999999994
sS'resource'
p1700
S'/usr/lib/pymodules/python2.7/openshot/transitions/blinds_in_to_out.pgm'
p1701
sg593
S'Avautuvat kaihtimet'
p1702
sg574
g32
sg564
F0
sg565
F0
sS'stored_x'
p1703
F0
sS'length'
p1704
F3
sS'mask_value'
p1705
F50
sS'softness'
p1706
F0.29999999999999999
sS'type'
p1707
S'transition'
p1708
sg599
S'8f8362b2-eba5-11e5-90d2-bc8ccdd91ea1'
p1709
sS'reverse'
p1710
I00
sba(iclasses.transition
transition
p1711
(dp1712
g563
F181.59999999999999
sg1700
S'/usr/lib/pymodules/python2.7/openshot/transitions/blinds_in_to_out.pgm'
p1713
sg593
S'Avautuvat kaihtimet'
p1714
sg574
g32
sg564
F0
sg565
F0
sg1703
F0
sg1704
F3
sg1705
F50
sg1706
F0.29999999999999999
sg1707
g1708
sg599
S'09126e70-eba6-11e5-90d2-bc8ccdd91ea1'
p1715
sg1710
I01
sba(iclasses.transition
transition
p1716
(dp1717
g687
g32
sS'resource'
p1718
S'/usr/lib/pymodules/python2.7/openshot/transitions/blinds_in_to_out.pgm'
p1719
sg706
S'Avautuvat kaihtimet'
p1720
sg675
F274.60000000000002
sg676
F0
sg677
F0
sS'stored_x'
p1721
F0
sS'length'
p1722
F3
sS'mask_value'
p1723
F50
sS'softness'
p1724
F0.29999999999999999
sS'type'
p1725
S'transition'
p1726
sg712
S'b776f6ca-eba6-11e5-bfbb-bc8ccdd91ea1'
p1727
sS'reverse'
p1728
I00
sba(iclasses.transition
transition
p1729
(dp1730
g687
g32
sg1718
S'/usr/lib/pymodules/python2.7/openshot/transitions/blinds_in_to_out.pgm'
p1731
sg706
S'Avautuvat kaihtimet'
p1732
sg675
F393.28170000000006
sg676
F0
sg677
F0
sg1721
F0
sg1722
F3
sg1723
F50
sg1724
F0.29999999999999999
sg1725
g1726
sg712
S'0e43b524-eba7-11e5-bfbb-bc8ccdd91ea1'
p1733
sg1728
I00
sba(iclasses.transition
transition
p1734
(dp1735
g687
g32
sg1718
S'/usr/lib/pymodules/python2.7/openshot/transitions/blinds_in_to_out.pgm'
p1736
sg706
S'Avautuvat kaihtimet'
p1737
sg675
F486.28170000000006
sg676
F0
sg677
F0
sg1721
F0
sg1722
F3
sg1723
F50
sg1724
F0.29999999999999999
sg1725
g1726
sg712
S'24389c46-eba7-11e5-bfbb-bc8ccdd91ea1'
p1738
sg1728
I00
sba(iclasses.transition
transition
p1739
(dp1740
g687
g32
sg1718
S'/usr/lib/pymodules/python2.7/openshot/transitions/blinds_in_to_out.pgm'
p1741
sg706
S'Avautuvat kaihtimet'
p1742
sg675
F579.2817
sg676
F0
sg677
F0
sg1721
F0
sg1722
F3
sg1723
F50
sg1724
F0.29999999999999999
sg1725
g1726
sg712
S'b65f6ba6-ebaa-11e5-bfbb-bc8ccdd91ea1'
p1743
sg1728
I00
sba(iclasses.transition
transition
p1744
(dp1745
g775
F699.41553333333331
sS'resource'
p1746
S'/usr/lib/pymodules/python2.7/openshot/transitions/blinds_in_to_out.pgm'
p1747
sg806
S'Avautuvat kaihtimet'
p1748
sg787
g32
sg776
F0
sg777
F0
sS'stored_x'
p1749
F0
sS'length'
p1750
F3
sS'mask_value'
p1751
F50
sS'softness'
p1752
F0.29999999999999999
sS'type'
p1753
S'transition'
p1754
sg812
S'72f656ec-ebad-11e5-b62c-bc8ccdd91ea1'
p1755
sS'reverse'
p1756
I00
sba(iclasses.transition
transition
p1757
(dp1758
g775
F792.41553333333331
sg1746
S'/usr/lib/pymodules/python2.7/openshot/transitions/blinds_in_to_out.pgm'
p1759
sg806
S'Avautuvat kaihtimet'
p1760
sg787
g32
sg776
F0
sg777
F0
sg1749
F0
sg1750
F3
sg1751
F50
sg1752
F0.29999999999999999
sg1753
g1754
sg812
S'4fa3afd0-ebaf-11e5-b62c-bc8ccdd91ea1'
p1761
sg1756
I00
sba(iclasses.transition
transition
p1762
(dp1763
g775
F885.41553333333331
sg1746
S'/usr/lib/pymodules/python2.7/openshot/transitions/blinds_in_to_out.pgm'
p1764
sg806
S'Avautuvat kaihtimet'
p1765
sg787
g32
sg776
F0
sg777
F0
sg1749
F0
sg1750
F3
sg1751
F50
sg1752
F0.29999999999999999
sg1753
g1754
sg812
S'b61f37d4-ebaf-11e5-b62c-bc8ccdd91ea1'
p1766
sg1756
I00
sba(iclasses.transition
transition
p1767
(dp1768
g775
F998.07736666666665
sg1746
S'/usr/lib/pymodules/python2.7/openshot/transitions/blinds_in_to_out.pgm'
p1769
sg806
S'Avautuvat kaihtimet'
p1770
sg787
g32
sg776
F0
sg777
F0
sg1749
F0
sg1750
F3
sg1751
F50
sg1752
F0.29999999999999999
sg1753
g1754
sg812
S'bbc1597c-ebb1-11e5-b62c-bc8ccdd91ea1'
p1771
sg1756
I00
sba(iclasses.transition
transition
p1772
(dp1773
S'parent'
p1774
g32
sS'resource'
p1775
S'/usr/lib/pymodules/python2.7/openshot/transitions/blinds_in_to_out.pgm'
p1776
sS'name'
p1777
S'Avautuvat kaihtimet'
p1778
sS'position_on_track'
p1779
F1091.0773666666666
sS'drag_y'
p1780
F0
sS'drag_x'
p1781
F0
sS'stored_x'
p1782
F0
sS'length'
p1783
F3
sS'mask_value'
p1784
F50
sS'softness'
p1785
F0.29999999999999999
sS'type'
p1786
S'transition'
p1787
sS'unique_id'
p1788
S'44e10dea-ec6d-11e5-a497-bc8ccdd91ea1'
p1789
sS'reverse'
p1790
I00
sba(iclasses.transition
transition
p1791
(dp1792
S'position_on_track'
p1793
F1184.0773666666666
sS'resource'
p1794
S'/usr/lib/pymodules/python2.7/openshot/transitions/blinds_in_to_out.pgm'
p1795
sS'name'
p1796
S'Avautuvat kaihtimet'
p1797
sS'parent'
p1798
g32
sS'drag_y'
p1799
F0
sS'drag_x'
p1800
F0
sS'stored_x'
p1801
F0
sS'length'
p1802
F3
sS'mask_value'
p1803
F50
sS'softness'
p1804
F0.29999999999999999
sS'type'
p1805
S'transition'
p1806
sS'unique_id'
p1807
S'fb7bf982-ec6f-11e5-a823-bc8ccdd91ea1'
p1808
sS'reverse'
p1809
I00
sbasg51
S'd2b54324-e944-11e5-95d5-bc8ccdd91ea1'
p1810
sba(iclasses.track
track
p1811
(dp1812
g34
(lp1813
(iclasses.clip
clip
p1814
(dp1815
g192
g193
sg194
I01
sg195
I00
sg196
(dp1816
g198
(iclasses.keyframe
keyframe
p1817
(dp1818
g47
I0
sg48
F100
sg49
F100
sS'x'
F0
sS'y'
F0
sg50
F1
sg51
S'7fe27aea-eb97-11e5-9645-bc8ccdd91ea1'
p1819
sbsg202
(iclasses.keyframe
keyframe
p1820
(dp1821
g47
I-1
sg48
F100
sg49
F100
sS'x'
F0
sS'y'
F0
sg50
F1
sg51
S'7fe28562-eb97-11e5-9645-bc8ccdd91ea1'
p1822
sbssg206
F2
sg207
I00
sg208
I00
sg209
F1
sg210
I01
sg211
F2
sg212
F14.94071581918222
sg213
F111.5
sg214
F275.5
sg215
I01
sg216
F2
sg217
F300
sg823
I00
sg218
g219
sg220
I00
sg221
I00
sg785
I00
sg222
F2
sg223
g1811
sg224
I01
sg225
F0
sg226
(iclasses.files
OpenShotFile
p1823
(dp1824
g81
F14999
sg82
S''
sg84
I0
sg85
S'/home/olli/Ty\xc3\xb6p\xc3\xb6yt\xc3\xa4/thumbnail/7e7e712c-eb97-11e5-9645-bc8ccdd91ea1_png_1.png'
p1825
sg87
S'/home/olli/Kuvat/Valinta_004.png'
p1826
sg89
Nsg90
g231
sg92
I0
sg48
I392
sg93
g1
sg49
I289
sg94
F300
sg95
F29.970029970029969
sg96
I1
sg97
S''
sg99
(F29.970029970029969
I0
tp1827
sg101
S''
sg51
S'7e85ba5e-eb97-11e5-9645-bc8ccdd91ea1'
p1828
sbsg234
I00
sg235
F100
sg236
(lp1829
sg262
F0
sg263
I00
sg264
S'/home/olli/Ty\xc3\xb6p\xc3\xb6yt\xc3\xa4/thumbnail/7e7e712c-eb97-11e5-9645-bc8ccdd91ea1_png_1.png'
p1830
sg266
S'Valinta_004.png'
p1831
sg268
g219
sg269
I01
sg270
F7
sg271
S'7fe264ec-eb97-11e5-9645-bc8ccdd91ea1'
p1832
sba(iclasses.clip
clip
p1833
(dp1834
S'color'
p1835
S'Gold'
p1836
sS'moved'
p1837
I00
sS'video_fade_out'
p1838
I01
sS'keyframes'
p1839
(dp1840
S'start'
p1841
(iclasses.keyframe
keyframe
p1842
(dp1843
g47
I0
sg48
F100
sg49
F100
sS'x'
F0
sS'y'
F0
sg50
F1
sg51
S'07af83b2-ebb8-11e5-b62c-bc8ccdd91ea1'
p1844
sbsS'end'
p1845
(iclasses.keyframe
keyframe
p1846
(dp1847
g47
I-1
sg48
F100
sg49
F100
sS'x'
F0
sS'y'
F0
sg50
F1
sg51
S'07af88bc-ebb8-11e5-b62c-bc8ccdd91ea1'
p1848
sbssS'video_fade_out_amount'
p1849
F4
sS'audio_fade_out'
p1850
I01
sS'reversed'
p1851
I00
sS'speed'
p1852
F1
sS'fill'
p1853
I01
sS'audio_fade_in_amount'
p1854
F2
sS'position_on_track'
p1855
F81.493157398680495
sS'drag_y'
p1856
F105.5
sS'drag_x'
p1857
F2187.5
sS'play_audio'
p1858
I01
sS'audio_fade_out_amount'
p1859
F4
sS'max_length'
p1860
F175.17500000000001
sg1086
I00
sS'valign'
p1861
S'centre'
p1862
sS'video_fade_in'
p1863
I00
sS'audio_fade_in'
p1864
I00
sS'request_show_properties'
p1865
I00
sS'video_fade_in_amount'
p1866
F2
sS'parent'
p1867
g1811
sS'composite'
p1868
I01
sS'start_time'
p1869
F0
sS'file_object'
p1870
(iclasses.files
OpenShotFile
p1871
(dp1872
g81
F5249
sg82
S'Vorbis'
p1873
sg84
I0
sg85
S'/home/olli/Ty\xc3\xb6p\xc3\xb6yt\xc3\xa4/thumbnail/022bfdc6-ebb8-11e5-b62c-bc8ccdd91ea1_flv_1.png'
p1874
sg87
S'/home/olli/Ty\xc3\xb6p\xc3\xb6yt\xc3\xa4/spicable_me_-AGizmgReKcw_fmt43-orig.flv'
p1875
sg89
Nsg90
S'video'
p1876
sg92
I0
sg48
I360
sg93
g1
sg49
I640
sg94
F175.17500000000001
sg95
F29.970029970029969
sg96
I1
sg97
S'On2 VP8'
p1877
sg99
(F29.970029970029969
I0
tp1878
sg101
S''
sg51
S'0239f50c-ebb8-11e5-b62c-bc8ccdd91ea1'
p1879
sbsS'distort'
p1880
I00
sS'volume'
p1881
F100
sS'effects'
p1882
(lp1883
sS'rotation'
p1884
F0
sS'is_timeline_scrolling'
p1885
I00
sS'thumb_location'
p1886
S'/home/olli/Ty\xc3\xb6p\xc3\xb6yt\xc3\xa4/thumbnail/022bfdc6-ebb8-11e5-b62c-bc8ccdd91ea1_flv_1.png'
p1887
sS'name'
p1888
S'minions_song_-_ymca_-_despicable_me_-AGizmgReKcw_fmt43-orig.flv'
p1889
sS'halign'
p1890
g1862
sS'play_video'
p1891
I00
sS'end_time'
p1892
F100.06684260131951
sS'unique_id'
p1893
S'07af7b4c-ebb8-11e5-b62c-bc8ccdd91ea1'
p1894
sba(iclasses.clip
clip
p1895
(dp1896
g1835
g1836
sg1837
I00
sg1838
I01
sg1839
(dp1897
g1841
(iclasses.keyframe
keyframe
p1898
(dp1899
g47
I0
sg48
F100
sg49
F100
sS'x'
F0
sS'y'
F0
sg50
F1
sg51
S'52d5d760-ebb8-11e5-b62c-bc8ccdd91ea1'
p1900
sbsg1845
(iclasses.keyframe
keyframe
p1901
(dp1902
g47
I-1
sg48
F100
sg49
F100
sS'x'
F0
sS'y'
F0
sg50
F1
sg51
S'52d5dbb6-ebb8-11e5-b62c-bc8ccdd91ea1'
p1903
sbssg1849
F4
sg1850
I01
sg1851
I00
sg1852
F1
sg1853
I01
sg1854
F4
sg1855
F181.56
sg1856
F90.5
sg1857
F2656.5
sg1858
I01
sg1859
F4
sg1860
F275.74213333333336
sg1086
I00
sg1861
g1862
sg1863
I01
sg1864
I01
sg1865
I00
sg1866
F4
sg1867
g1811
sg1868
I01
sg1869
F0
sg1870
(iclasses.files
OpenShotFile
p1904
(dp1905
g81
F8263
sg82
S'Vorbis'
p1906
sg84
I0
sg85
S'/home/olli/Ty\xc3\xb6p\xc3\xb6yt\xc3\xa4/thumbnail/4e4f301a-ebb8-11e5-b62c-bc8ccdd91ea1_flv_1.png'
p1907
sg87
S'/home/olli/Ty\xc3\xb6p\xc3\xb6yt\xc3\xa4/meiju_suvas-JUGmpSd5vyY_fmt43-orig.flv'
p1908
sg89
Nsg90
g1876
sg92
I0
sg48
I288
sg93
g1
sg49
I384
sg94
F275.74213333333336
sg95
F29.970029970029969
sg96
I1
sg97
S'On2 VP8'
p1909
sg99
(F29.970029970029969
I0
tp1910
sg101
S''
sg51
S'4e5b6cb8-ebb8-11e5-b62c-bc8ccdd91ea1'
p1911
sbsg1880
I00
sg1881
F100
sg1882
(lp1912
sg1884
F0
sg1885
I00
sg1886
S'/home/olli/Ty\xc3\xb6p\xc3\xb6yt\xc3\xa4/thumbnail/4e4f301a-ebb8-11e5-b62c-bc8ccdd91ea1_flv_1.png'
p1913
sg1888
S'meiju_suvas_-_pure_mua-JUGmpSd5vyY_fmt43-orig.flv'
p1914
sg1890
g1862
sg1891
I00
sg1892
F186.07999999999998
sg1893
S'52d5d04e-ebb8-11e5-b62c-bc8ccdd91ea1'
p1915
sba(iclasses.clip
clip
p1916
(dp1917
g1835
g1836
sg1837
I00
sg1838
I01
sg1839
(dp1918
g1841
(iclasses.keyframe
keyframe
p1919
(dp1920
g47
I0
sg48
F100
sg49
F100
sS'x'
F0
sS'y'
F0
sg50
F1
sg51
S'f31eba96-ebb5-11e5-b62c-bc8ccdd91ea1'
p1921
sbsg1845
(iclasses.keyframe
keyframe
p1922
(dp1923
g47
I-1
sg48
F100
sg49
F100
sS'x'
F0
sS'y'
F0
sg50
F1
sg51
S'f31ec342-ebb5-11e5-b62c-bc8ccdd91ea1'
p1924
sbssg1849
F4
sg1850
I01
sg1851
I00
sg1852
F1
sg1853
I01
sg1854
F4
sg1855
F393.08943333333337
sg1856
F108.5
sg1857
F5279.5
sg1858
I01
sg1859
F4
sg1860
F134.56776666666667
sg1086
I00
sg1861
g1862
sg1863
I01
sg1864
I01
sg1865
I00
sg1866
F4
sg1867
g1811
sg1868
I01
sg1869
F9.9826705413771037
sg1870
(iclasses.files
OpenShotFile
p1925
(dp1926
g81
F4032
sg82
S'Vorbis'
p1927
sg84
I0
sg85
S'/home/olli/Ty\xc3\xb6p\xc3\xb6yt\xc3\xa4/thumbnail/bbc5a71c-ebb5-11e5-b62c-bc8ccdd91ea1_flv_1.png'
p1928
sg87
S'/home/olli/Ty\xc3\xb6p\xc3\xb6yt\xc3\xa4/hercules_hd-qokXWHEViVc_fmt43-orig.flv'
p1929
sg89
Nsg90
S'video'
p1930
sg92
I0
sg48
I360
sg93
g1
sg49
I640
sg94
F134.56776666666667
sg95
F29.970029970029969
sg96
I1
sg97
S'On2 VP8'
p1931
sg99
(F29.970029970029969
I0
tp1932
sg101
S''
sg51
S'bbd5c246-ebb5-11e5-b62c-bc8ccdd91ea1'
p1933
sbsg1880
I00
sg1881
F100
sg1882
(lp1934
sg1884
F0
sg1885
I00
sg1886
S'/home/olli/Ty\xc3\xb6p\xc3\xb6yt\xc3\xa4/thumbnail/hercules_hd-qokXWHEViVc_fmt43-orig_flv_2.png'
p1935
sg1888
S'hercules_-_a_star_is_born_english_hd-qokXWHEViVc_fmt43-orig.flv'
p1936
sg1890
g1862
sg1891
I00
sg1892
F103.33323720804373
sg1893
S'14816c1a-ebb6-11e5-b62c-bc8ccdd91ea1'
p1937
sba(iclasses.clip
clip
p1938
(dp1939
g1835
g1836
sg1837
I00
sg1838
I00
sg1839
(dp1940
g1841
(iclasses.keyframe
keyframe
p1941
(dp1942
g47
I0
sg48
F100
sg49
F100
sS'x'
F0
sS'y'
F0
sg50
F1
sg51
S'3f7774fe-ebb7-11e5-b62c-bc8ccdd91ea1'
p1943
sbsg1845
(iclasses.keyframe
keyframe
p1944
(dp1945
g47
I-1
sg48
F100
sg49
F100
sS'x'
F0
sS'y'
F0
sg50
F1
sg51
S'3f777b0c-ebb7-11e5-b62c-bc8ccdd91ea1'
p1946
sbssg1849
F4
sg1850
I00
sg1851
I00
sg1852
F1
sg1853
I01
sg1854
F4
sg1855
F486.44
sg1856
F102.5
sg1857
F6393.5
sg1858
I01
sg1859
F4
sg1860
F34.334299999999999
sg1086
I00
sg1861
g1862
sg1863
I01
sg1864
I01
sg1865
I00
sg1866
F4
sg1867
g1811
sg1868
I01
sg1869
F0
sg1870
(iclasses.files
OpenShotFile
p1947
(dp1948
g81
F1028
sg82
S'Vorbis'
p1949
sg84
I0
sg85
S'/home/olli/Ty\xc3\xb6p\xc3\xb6yt\xc3\xa4/thumbnail/3c24430e-ebb7-11e5-b62c-bc8ccdd91ea1_flv_1.png'
p1950
sg87
S'/home/olli/Ty\xc3\xb6p\xc3\xb6yt\xc3\xa4/millionaire_2016_t-35QLOzJHwHE_fmt43-orig.flv'
p1951
sg89
Nsg90
g1876
sg92
I0
sg48
I360
sg93
g1
sg49
I640
sg94
F34.334299999999999
sg95
F29.970029970029969
sg96
I1
sg97
S'On2 VP8'
p1952
sg99
(F29.970029970029969
I0
tp1953
sg101
S''
sg51
S'3c3122c2-ebb7-11e5-b62c-bc8ccdd91ea1'
p1954
sbsg1880
I00
sg1881
F100
sg1882
(lp1955
sg1884
F0
sg1885
I00
sg1886
S'/home/olli/Ty\xc3\xb6p\xc3\xb6yt\xc3\xa4/thumbnail/3c24430e-ebb7-11e5-b62c-bc8ccdd91ea1_flv_1.png'
p1956
sg1888
S'who_wants_to_be_a_millionaire_2016_t-35QLOzJHwHE_fmt43-orig.flv'
p1957
sg1890
g1862
sg1891
I00
sg1892
F34.334299999999999
sg1893
S'3f776bb2-ebb7-11e5-b62c-bc8ccdd91ea1'
p1958
sba(iclasses.clip
clip
p1959
(dp1960
g1835
g1836
sg1837
I00
sg1838
I00
sg1839
(dp1961
g1841
(iclasses.keyframe
keyframe
p1962
(dp1963
g47
I0
sg48
F100
sg49
F100
sS'x'
F0
sS'y'
F0
sg50
F1
sg51
S'9ce723c8-ebb7-11e5-b62c-bc8ccdd91ea1'
p1964
sbsg1845
(iclasses.keyframe
keyframe
p1965
(dp1966
g47
I-1
sg48
F100
sg49
F100
sS'x'
F0
sS'y'
F0
sg50
F1
sg51
S'9ce728b4-ebb7-11e5-b62c-bc8ccdd91ea1'
p1967
sbssg1849
F2
sg1850
I00
sg1851
I00
sg1852
F1
sg1853
I01
sg1854
F2
sg1855
F520.77430000000004
sg1856
F108.5
sg1857
F6739.5
sg1858
I01
sg1859
F2
sg1860
F34.334299999999999
sg1861
g1862
sg1863
I00
sg1864
I00
sg1865
I00
sg1866
F2
sg1867
g1811
sg1868
I01
sg1869
F0
sg1870
g1947
sg1880
I00
sg1881
F100
sg1882
(lp1968
sg1884
F0
sg1885
I00
sg1886
g1956
sg1888
S'who_wants_to_be_a_millionaire_2016_t-35QLOzJHwHE_fmt43-orig.flv'
p1969
sg1890
g1862
sg1891
I00
sg1892
F34.334299999999999
sg1893
S'9ce71be4-ebb7-11e5-b62c-bc8ccdd91ea1'
p1970
sba(iclasses.clip
clip
p1971
(dp1972
g1835
g1836
sg1837
I00
sg1838
I01
sg1839
(dp1973
g1841
(iclasses.keyframe
keyframe
p1974
(dp1975
g47
I0
sg48
F100
sg49
F100
sS'x'
F0
sS'y'
F0
sg50
F1
sg51
S'9f39c216-ebb7-11e5-b62c-bc8ccdd91ea1'
p1976
sbsg1845
(iclasses.keyframe
keyframe
p1977
(dp1978
g47
I-1
sg48
F100
sg49
F100
sS'x'
F0
sS'y'
F0
sg50
F1
sg51
S'9f39c734-ebb7-11e5-b62c-bc8ccdd91ea1'
p1979
sbssg1849
F4
sg1850
I01
sg1851
I00
sg1852
F1
sg1853
I01
sg1854
F2
sg1855
F555.10860000000002
sg1856
F107.5
sg1857
F7115.5
sg1858
I01
sg1859
F4
sg1860
F34.334299999999999
sg1861
g1862
sg1863
I00
sg1864
I00
sg1865
I00
sg1866
F2
sg1867
g1811
sg1868
I01
sg1869
F0
sg1870
g1947
sg1880
I00
sg1881
F100
sg1882
(lp1980
sg1884
F0
sg1885
I00
sg1886
g1956
sg1888
S'who_wants_to_be_a_millionaire_2016_t-35QLOzJHwHE_fmt43-orig.flv'
p1981
sg1890
g1862
sg1891
I00
sg1892
F24.291399999999953
sg1893
S'9f39b8f2-ebb7-11e5-b62c-bc8ccdd91ea1'
p1982
sba(iclasses.clip
clip
p1983
(dp1984
g969
g970
sg971
I00
sg972
I01
sg973
(dp1985
g975
(iclasses.keyframe
keyframe
p1986
(dp1987
g47
I0
sg48
F100
sg49
F100
sS'x'
F0
sS'y'
F0
sg50
F1
sg51
S'79f81f72-ebba-11e5-96e8-bc8ccdd91ea1'
p1988
sbsg979
(iclasses.keyframe
keyframe
p1989
(dp1990
g47
I-1
sg48
F100
sg49
F100
sS'x'
F0
sS'y'
F0
sg50
F1
sg51
S'79f828be-ebba-11e5-96e8-bc8ccdd91ea1'
p1991
sbssg983
F4
sg984
I01
sg985
I00
sg986
F1
sg987
I01
sg988
F4
sg989
F579.39999999999998
sg990
F111.5
sg991
F7484.5
sg992
I01
sg993
F4
sg994
F434.56746666666669
sg995
I00
sg996
S'centre'
p1992
sg998
I01
sg999
I01
sg1000
I00
sg1001
F4
sg1002
g1811
sg1003
I01
sg1004
F0
sg1005
(iclasses.files
OpenShotFile
p1993
(dp1994
g81
F13023
sg82
S'Vorbis'
p1995
sg84
I0
sg85
S'/home/olli/Ty\xc3\xb6p\xc3\xb6yt\xc3\xa4/thumbnail/bdad14d0-ebb9-11e5-b62c-bc8ccdd91ea1_flv_1.png'
p1996
sg87
S'/home/olli/Ty\xc3\xb6p\xc3\xb6yt\xc3\xa4/amor_apache-DpIv-BB3ep8_fmt43-orig.flv'
p1997
sg89
Nsg90
g1876
sg92
I0
sg48
I240
sg93
g1
sg49
I320
sg94
F434.56746666666669
sg95
F29.970029970029969
sg96
I1
sg97
S'On2 VP8'
p1998
sg99
(F29.970029970029969
I0
tp1999
sg101
S''
sg51
S'bdb8133a-ebb9-11e5-b62c-bc8ccdd91ea1'
p2000
sbsg1012
I00
sg1013
F100
sg1014
(lp2001
sg1016
F0
sg1017
I00
sg1018
S'/home/olli/Ty\xc3\xb6p\xc3\xb6yt\xc3\xa4/thumbnail/bdad14d0-ebb9-11e5-b62c-bc8ccdd91ea1_flv_1.png'
p2002
sg1020
S'bird_and_cat_amor_apache-DpIv-BB3ep8_fmt43-orig.flv'
p2003
sg1022
g1992
sg1024
I00
sg1025
F92.960000000000036
sg1026
S'79f81126-ebba-11e5-96e8-bc8ccdd91ea1'
p2004
sba(iclasses.clip
clip
p2005
(dp2006
g755
g756
sg757
I00
sg758
I01
sg759
(dp2007
g761
(iclasses.keyframe
keyframe
p2008
(dp2009
g47
I0
sg48
F100
sg49
F100
sS'x'
F0
sS'y'
F0
sg50
F1
sg51
S'296260ae-ebb5-11e5-b62c-bc8ccdd91ea1'
p2010
sbsg765
(iclasses.keyframe
keyframe
p2011
(dp2012
g47
I-1
sg48
F100
sg49
F100
sS'x'
F0
sS'y'
F0
sg50
F1
sg51
S'29626568-ebb5-11e5-b62c-bc8ccdd91ea1'
p2013
sbssg769
F4
sg770
I01
sg771
I00
sg772
F1
sg773
I01
sg774
F2
sg775
F699.50140374646571
sg776
F108.5
sg777
F9674.5
sg778
I01
sg779
F4
sg780
F157.89106666666666
sg723
I00
sg781
g918
sg783
I00
sg784
I00
sS'request_show_properties'
p2014
I00
sg786
F2
sg787
g1811
sg788
I01
sg789
F0
sg790
(iclasses.files
OpenShotFile
p2015
(dp2016
g81
F4731
sg82
S'Vorbis'
p2017
sg84
I0
sg85
S'/home/olli/Ty\xc3\xb6p\xc3\xb6yt\xc3\xa4/thumbnail/1e9d570a-ebb5-11e5-b62c-bc8ccdd91ea1_flv_1.png'
p2018
sg87
S'/home/olli/Ty\xc3\xb6p\xc3\xb6yt\xc3\xa4/monty_python_and_the_holy_grail-_int-O0wOD9TWynM_fmt43-orig.flv'
p2019
sg89
Nsg90
g924
sg92
I0
sg48
I360
sg93
g1
sg49
I640
sg94
F157.89106666666666
sg95
F29.970029970029969
sg96
I1
sg97
S'On2 VP8'
p2020
sg99
(F29.970029970029969
I0
tp2021
sg101
S''
sg51
S'1eb18d1a-ebb5-11e5-b62c-bc8ccdd91ea1'
p2022
sbsg798
I00
sg799
F100
sg800
(lp2023
sg802
F0
sg803
I00
sg804
S'/home/olli/Ty\xc3\xb6p\xc3\xb6yt\xc3\xa4/thumbnail/1e9d570a-ebb5-11e5-b62c-bc8ccdd91ea1_flv_1.png'
p2024
sg806
S'monty_python_and_the_holy_grail-_int-O0wOD9TWynM_fmt43-orig.flv'
p2025
sg808
g918
sg810
I00
sg811
F92.858596253534301
sg812
S'2962580c-ebb5-11e5-b62c-bc8ccdd91ea1'
p2026
sba(iclasses.clip
clip
p2027
(dp2028
g755
g756
sg757
I00
sg758
I01
sg759
(dp2029
g761
(iclasses.keyframe
keyframe
p2030
(dp2031
g47
I0
sg48
F100
sg49
F100
sS'x'
F0
sS'y'
F0
sg50
F1
sg51
S'4ab9a074-ebb4-11e5-b62c-bc8ccdd91ea1'
p2032
sbsg765
(iclasses.keyframe
keyframe
p2033
(dp2034
g47
I-1
sg48
F100
sg49
F100
sS'x'
F0
sS'y'
F0
sg50
F1
sg51
S'4ab9a56a-ebb4-11e5-b62c-bc8ccdd91ea1'
p2035
sbssg769
F4
sg770
I01
sg771
I00
sg772
F1
sg773
I01
sg774
F4
sg775
F792.49177745420002
sg776
F107.5
sg777
F10859.5
sg778
I01
sg779
F4
sg780
F307.57393333333334
sg823
I00
sg781
g918
sg783
I01
sg784
I01
sg785
I00
sg786
F4
sg787
g1811
sg788
I01
sg789
F0
sg790
(iclasses.files
OpenShotFile
p2036
(dp2037
g81
F9217
sg82
S'Vorbis'
p2038
sg84
I0
sg85
S'/home/olli/Ty\xc3\xb6p\xc3\xb6yt\xc3\xa4/thumbnail/4491efd0-ebb4-11e5-b62c-bc8ccdd91ea1_flv_1.png'
p2039
sg87
S'/home/olli/Ty\xc3\xb6p\xc3\xb6yt\xc3\xa4/theme_song-Htaj3o3JD8I_fmt43-orig.flv'
p2040
sg89
Nsg90
g924
sg92
I0
sg48
I360
sg93
g1
sg49
I480
sg94
F307.57393333333334
sg95
F29.970029970029969
sg96
I1
sg97
S'On2 VP8'
p2041
sg99
(F29.970029970029969
I0
tp2042
sg101
S''
sg51
S'44a18788-ebb4-11e5-b62c-bc8ccdd91ea1'
p2043
sbsg798
I00
sg799
F100
sg800
(lp2044
sg802
F0
sg803
I00
sg804
S'/home/olli/Ty\xc3\xb6p\xc3\xb6yt\xc3\xa4/thumbnail/4491efd0-ebb4-11e5-b62c-bc8ccdd91ea1_flv_1.png'
p2045
sg806
S'harry_potter_theme_song-Htaj3o3JD8I_fmt43-orig.flv'
p2046
sg808
g918
sg810
I00
sg811
F92.668222545799949
sg812
S'4ab997b4-ebb4-11e5-b62c-bc8ccdd91ea1'
p2047
sba(iclasses.clip
clip
p2048
(dp2049
g755
g756
sg757
I00
sg758
I01
sg759
(dp2050
g761
(iclasses.keyframe
keyframe
p2051
(dp2052
g47
I0
sg48
F100
sg49
F100
sS'x'
F0
sS'y'
F0
sg50
F1
sg51
S'a8efe29e-ebb3-11e5-b62c-bc8ccdd91ea1'
p2053
sbsg765
(iclasses.keyframe
keyframe
p2054
(dp2055
g47
I-1
sg48
F100
sg49
F100
sS'x'
F0
sS'y'
F0
sg50
F1
sg51
S'a8efe7bc-ebb3-11e5-b62c-bc8ccdd91ea1'
p2056
sbssg769
F4
sg770
I01
sg771
I00
sg772
F1
sg773
I01
sg774
F2
sg775
F885.15999999999997
sg776
F85.5
sg777
F11259.5
sg778
I01
sg779
F4
sg780
F249.38246666666666
sg823
I00
sg781
g918
sg783
I00
sg784
I00
sg785
I00
sg786
F2
sg787
g1811
sg788
I01
sg789
F0
sg790
(iclasses.files
OpenShotFile
p2057
(dp2058
g81
F7473
sg82
S'Vorbis'
p2059
sg84
I0
sg85
S'/home/olli/Ty\xc3\xb6p\xc3\xb6yt\xc3\xa4/thumbnail/8cb8b088-ebb3-11e5-b62c-bc8ccdd91ea1_flv_1.png'
p2060
sg87
S'/home/olli/Ty\xc3\xb6p\xc3\xb6yt\xc3\xa4/red_yellow_blue_battle_music-2Jmty_NiaXc_fmt43-orig.flv'
p2061
sg89
Nsg90
g924
sg92
I0
sg48
I360
sg93
g1
sg49
I480
sg94
F249.38246666666666
sg95
F29.970029970029969
sg96
I1
sg97
S'On2 VP8'
p2062
sg99
(F29.970029970029969
I0
tp2063
sg101
S''
sg51
S'8cc5497e-ebb3-11e5-b62c-bc8ccdd91ea1'
p2064
sbsg798
I00
sg799
F100
sg800
(lp2065
sg802
F0
sg803
I00
sg804
S'/home/olli/Ty\xc3\xb6p\xc3\xb6yt\xc3\xa4/thumbnail/8cb8b088-ebb3-11e5-b62c-bc8ccdd91ea1_flv_1.png'
p2066
sg806
S'pokemon_red_yellow_blue_battle_music-2Jmty_NiaXc_fmt43-orig.flv'
p2067
sg808
g918
sg810
I00
sg811
F93.591585326343193
sg812
S'a8efd880-ebb3-11e5-b62c-bc8ccdd91ea1'
p2068
sba(iclasses.clip
clip
p2069
(dp2070
g1835
g1836
sg1837
I00
sg1838
I01
sg1839
(dp2071
g1841
(iclasses.keyframe
keyframe
p2072
(dp2073
g47
I0
sg48
F100
sg49
F100
sS'x'
F0
sS'y'
F0
sg50
F1
sg51
S'23d1c2de-ebb9-11e5-b62c-bc8ccdd91ea1'
p2074
sbsg1845
(iclasses.keyframe
keyframe
p2075
(dp2076
g47
I-1
sg48
F100
sg49
F100
sS'x'
F0
sS'y'
F0
sg50
F1
sg51
S'23d1c784-ebb9-11e5-b62c-bc8ccdd91ea1'
p2077
sbssg1849
F4
sg1850
I01
sg1851
I00
sg1852
F1
sg1853
I01
sg1854
F2
sg1855
F998.09276136162816
sg1856
F106.5
sg1857
F13466.5
sg1858
I01
sg1859
F4
sg1860
F255.75550000000001
sg1086
I00
sg1861
g1862
sg1863
I00
sg1864
I00
sg1865
I00
sg1866
F2
sg1867
g1811
sg1868
I01
sg1869
F0
sg1870
(iclasses.files
OpenShotFile
p2078
(dp2079
g81
F7664
sg82
S'Vorbis'
p2080
sg84
I0
sg85
S'/home/olli/Ty\xc3\xb6p\xc3\xb6yt\xc3\xa4/thumbnail/1c978e36-ebb9-11e5-b62c-bc8ccdd91ea1_flv_1.png'
p2081
sg87
S'/home/olli/Ty\xc3\xb6p\xc3\xb6yt\xc3\xa4/instrumental_theme_under_the_sea_the-Sds8vgkZykc_fmt43-orig.flv'
p2082
sg89
Nsg90
g1876
sg92
I0
sg48
I240
sg93
g1
sg49
I320
sg94
F255.75550000000001
sg95
F29.970029970029969
sg96
I1
sg97
S'On2 VP8'
p2083
sg99
(F29.970029970029969
I0
tp2084
sg101
S''
sg51
S'1ca676d0-ebb9-11e5-b62c-bc8ccdd91ea1'
p2085
sbsg1880
I00
sg1881
F100
sg1882
(lp2086
sg1884
F0
sg1885
I00
sg1886
S'/home/olli/Ty\xc3\xb6p\xc3\xb6yt\xc3\xa4/thumbnail/1c978e36-ebb9-11e5-b62c-bc8ccdd91ea1_flv_1.png'
p2087
sg1888
S'instrumental_theme_under_the_sea_the-Sds8vgkZykc_fmt43-orig.flv'
p2088
sg1890
g1862
sg1891
I00
sg1892
F92.907238638371837
sg1893
S'23d1b9b0-ebb9-11e5-b62c-bc8ccdd91ea1'
p2089
sba(iclasses.clip
clip
p2090
(dp2091
S'color'
p2092
S'Gold'
p2093
sS'moved'
p2094
I00
sS'video_fade_out'
p2095
I01
sS'keyframes'
p2096
(dp2097
S'start'
p2098
(iclasses.keyframe
keyframe
p2099
(dp2100
g47
I0
sg48
F100
sg49
F100
sS'x'
F0
sS'y'
F0
sg50
F1
sg51
S'eaeb987c-ec6d-11e5-a823-bc8ccdd91ea1'
p2101
sbsS'end'
p2102
(iclasses.keyframe
keyframe
p2103
(dp2104
g47
I-1
sg48
F100
sg49
F100
sS'x'
F0
sS'y'
F0
sg50
F1
sg51
S'eaeba218-ec6d-11e5-a823-bc8ccdd91ea1'
p2105
sbssS'video_fade_out_amount'
p2106
F4
sS'audio_fade_out'
p2107
I01
sS'reversed'
p2108
I00
sS'speed'
p2109
F1
sS'fill'
p2110
I01
sS'audio_fade_in_amount'
p2111
F4
sg1793
F1091
sg1799
F112.5
sg1800
F13801.5
sS'play_audio'
p2112
I01
sS'audio_fade_out_amount'
p2113
F4
sS'max_length'
p2114
F167.86770000000001
sS'show_preview'
p2115
I00
sS'valign'
p2116
S'centre'
p2117
sS'video_fade_in'
p2118
I01
sS'audio_fade_in'
p2119
I01
sS'request_show_properties'
p2120
I00
sS'video_fade_in_amount'
p2121
F4
sg1798
g1811
sS'composite'
p2122
I01
sS'start_time'
p2123
F0
sS'file_object'
p2124
(iclasses.files
OpenShotFile
p2125
(dp2126
g81
F5030
sg82
S'Vorbis'
p2127
sg84
I0
sg85
S'/home/olli/Ty\xc3\xb6p\xc3\xb6yt\xc3\xa4/thumbnail/cd467f6c-ec6d-11e5-a497-bc8ccdd91ea1_flv_1.png'
p2128
sg87
S'/home/olli/Ty\xc3\xb6p\xc3\xb6yt\xc3\xa4/ukkosmaine_-DSxtPv5ALEI_fmt43-orig.flv'
p2129
sg89
Nsg90
S'video'
p2130
sg92
I0
sg48
I360
sg93
g1
sg49
I640
sg94
F167.86770000000001
sg95
F29.970029970029969
sg96
I1
sg97
S'On2 VP8'
p2131
sg99
(F29.970029970029969
I0
tp2132
sg101
S''
sg51
S'cd53a322-ec6d-11e5-a497-bc8ccdd91ea1'
p2133
sbsS'distort'
p2134
I00
sS'volume'
p2135
F100
sS'effects'
p2136
(lp2137
sS'rotation'
p2138
F0
sS'is_timeline_scrolling'
p2139
I00
sS'thumb_location'
p2140
S'/home/olli/Ty\xc3\xb6p\xc3\xb6yt\xc3\xa4/thumbnail/cd467f6c-ec6d-11e5-a497-bc8ccdd91ea1_flv_1.png'
p2141
sg1796
S'ukkosmaine_salamaponi-DSxtPv5ALEI_fmt43-orig.flv'
p2142
sS'halign'
p2143
g2117
sS'play_video'
p2144
I00
sS'end_time'
p2145
F92.960000000000036
sg1807
S'eaeb890e-ec6d-11e5-a823-bc8ccdd91ea1'
p2146
sba(iclasses.clip
clip
p2147
(dp2148
g2092
g2093
sg2094
I00
sg2095
I01
sg2096
(dp2149
g2098
(iclasses.keyframe
keyframe
p2150
(dp2151
g47
I0
sg48
F100
sg49
F100
sS'x'
F0
sS'y'
F0
sg50
F1
sg51
S'c4ad2c1e-ec6f-11e5-a823-bc8ccdd91ea1'
p2152
sbsg2102
(iclasses.keyframe
keyframe
p2153
(dp2154
g47
I-1
sg48
F100
sg49
F100
sS'x'
F0
sS'y'
F0
sg50
F1
sg51
S'c4ad357e-ec6f-11e5-a823-bc8ccdd91ea1'
p2155
sbssg2106
F4
sg2107
I01
sg2108
I00
sg2109
F1
sg2110
I01
sg2111
F4
sg1793
F1183.96
sg1799
F89.5
sg1800
F15507.5
sg2112
I01
sg2113
F4
sg2114
F342.57556666666665
sg2115
I00
sg2116
g2117
sg2118
I01
sg2119
I01
sg2120
I00
sg2121
F4
sg1798
g1811
sg2122
I01
sg2123
F0
sg2124
(iclasses.files
OpenShotFile
p2156
(dp2157
g81
F10266
sg82
S'Vorbis'
p2158
sg84
I0
sg85
S'/home/olli/Ty\xc3\xb6p\xc3\xb6yt\xc3\xa4/thumbnail/ba2b74c6-ec6f-11e5-a823-bc8ccdd91ea1_flv_1.png'
p2159
sg87
S'/home/olli/Ty\xc3\xb6p\xc3\xb6yt\xc3\xa4/elvis_presley_-_see_see_riderburning-SIuAkCI8KMc_fmt43-orig.flv'
p2160
sg89
Nsg90
S'video'
p2161
sg92
I0
sg48
I360
sg93
g1
sg49
I540
sg94
F342.57556666666665
sg95
F29.970029970029969
sg96
I1
sg97
S'On2 VP8'
p2162
sg99
(F29.970029970029969
I0
tp2163
sg101
S''
sg51
S'ba3b3406-ec6f-11e5-a823-bc8ccdd91ea1'
p2164
sbsg2134
I00
sg2135
F100
sg2136
(lp2165
sg2138
F0
sg2139
I00
sg2140
S'/home/olli/Ty\xc3\xb6p\xc3\xb6yt\xc3\xa4/thumbnail/ba2b74c6-ec6f-11e5-a823-bc8ccdd91ea1_flv_1.png'
p2166
sg1796
S'elvis_presley_-_see_see_riderburning-SIuAkCI8KMc_fmt43-orig.flv'
p2167
sg2143
g2117
sg2144
I00
sg2145
F92.879999999999882
sg1807
S'c4ad1cd8-ec6f-11e5-a823-bc8ccdd91ea1'
p2168
sba(iclasses.clip
clip
p2169
(dp2170
g755
g756
sg757
I01
sg758
I00
sg759
(dp2171
g761
(iclasses.keyframe
keyframe
p2172
(dp2173
g47
I0
sg48
F100
sg49
F100
sS'x'
F0
sS'y'
F0
sg50
F1
sg51
S'b9edbfe0-ebb2-11e5-b62c-bc8ccdd91ea1'
p2174
sbsg765
(iclasses.keyframe
keyframe
p2175
(dp2176
g47
I-1
sg48
F100
sg49
F100
sS'x'
F0
sS'y'
F0
sg50
F1
sg51
S'b9edc5d0-ebb2-11e5-b62c-bc8ccdd91ea1'
p2177
sbssg769
F2
sg770
I00
sg771
I00
sg772
F1
sg773
I01
sg774
F2
sg775
F1276.8399999999999
sg776
F113.5
sg777
F16167.5
sg778
I01
sg779
F2
sg780
F191.65813333333332
sg823
I00
sg781
g918
sg783
I00
sg784
I00
sg785
I00
sg786
F2
sg787
g1811
sg788
I01
sg789
F91.212924182601455
sg790
(iclasses.files
OpenShotFile
p2178
(dp2179
g81
F5743
sg82
S'Vorbis'
p2180
sg84
I0
sg85
S'/home/olli/Ty\xc3\xb6p\xc3\xb6yt\xc3\xa4/thumbnail/b7168d06-ebb2-11e5-b62c-bc8ccdd91ea1_flv_1.png'
p2181
sg87
S'/home/olli/Ty\xc3\xb6p\xc3\xb6yt\xc3\xa4/martin_garrix_-_animals_official_vid-gCYcHz2k5x0_fmt43-orig.flv'
p2182
sg89
Nsg90
g924
sg92
I0
sg48
I360
sg93
g1
sg49
I640
sg94
F191.65813333333332
sg95
F29.970029970029969
sg96
I1
sg97
S'On2 VP8'
p2183
sg99
(F29.970029970029969
I0
tp2184
sg101
S''
sg51
S'b722d93a-ebb2-11e5-b62c-bc8ccdd91ea1'
p2185
sbsg798
I00
sg799
F100
sg800
(lp2186
sg802
F0
sg803
I00
sg804
S'/home/olli/Ty\xc3\xb6p\xc3\xb6yt\xc3\xa4/thumbnail/martin_garrix_-_animals_official_vid-gCYcHz2k5x0_fmt43-orig_flv_2.png'
p2187
sg806
S'martin_garrix_-_animals_official_vid-gCYcHz2k5x0_fmt43-orig.flv'
p2188
sg808
g918
sg810
I00
sg811
F121.49985751593499
sg812
S'eaab3356-ebb2-11e5-b62c-bc8ccdd91ea1'
p2189
sba(iclasses.clip
clip
p2190
(dp2191
g1349
g1350
sg1351
I00
sg1352
I00
sg1353
(dp2192
g1355
(iclasses.keyframe
keyframe
p2193
(dp2194
g49
F100
sg50
F1
sS'y'
F0
sS'x'
F0
sg47
I0
sg51
g1675
sg48
F100
sbsg1359
(iclasses.keyframe
keyframe
p2195
(dp2196
g49
F100
sg50
F1
sS'y'
F0
sS'x'
F0
sg47
I-1
sg51
g1678
sg48
F100
sbssg1363
F2
sg1364
I00
sg1365
F1
sg1366
I01
sg1367
F2
sg1368
F1541.2232999999997
sg1369
F59.075000000000003
sg1370
F19272.075000000001
sg1371
I01
sg1372
F2
sg1373
F140.8407
sg1427
I00
sg1374
g1375
sg1376
I00
sg1377
I00
sg1412
I00
sg1378
F2
sg89
g1811
sg1379
I01
sg1380
I01
sg1381
F22.016700000000355
sg1382
g128
sg1390
I00
sg1391
F100
sg1392
(lp2197
sg1394
F0
sg1395
I00
sg85
S'/home/olli/Ty\xc3\xb6p\xc3\xb6yt\xc3\xa4/thumbnail/taparikollinen_-dN-jralLzrc_fmt135-orig_mp4_2.png'
p2198
sg87
g1681
sg1398
g1375
sg1399
I01
sg1400
F29.645933333333915
sg51
S'24b38f32-ec7e-11e5-a180-bc8ccdd91ea1'
p2199
sbasg87
S'Raita 2'
p2200
sg89
g20
sg1371
I01
sg1694
I71
sg1399
I01
sg1695
I130
sS'x'
I10
sg1696
(lp2201
sg51
S'459aca5c-e941-11e5-9984-bc8ccdd91ea1'
p2202
sba(iclasses.track
track
p2203
(dp2204
g34
(lp2205
sg87
S'Raita 1'
p2206
sg89
g20
sg1371
I01
sg1694
I136
sg1399
I01
sg1695
I195
sS'x'
I10
sg1696
(lp2207
sg51
S'459af964-e941-11e5-9984-bc8ccdd91ea1'
p2208
sbasS'markers'
p2209
(lp2210
sS'project'
p2211
g1
sS'length'
p2212
F1785.2405000000003
sS'ruler_time'
p2213
Nsg64
F3.0870833333356131
sS'play_head_line'
p2214
NsbasS'refresh_xml'
p2215
I01
sS'project_type'
p2216
S'DV/DVD NTSC'
p2217
sS'sequences'
p2218
(lp2219
g20
asS'DEBUG'
p2220
I01
sS'UI_DIR'
p2221
S'/usr/lib/pymodules/python2.7/openshot/windows/ui'
p2222
sS'PROFILES_DIR'
p2223
S'/usr/lib/pymodules/python2.7/openshot/profiles'
p2224
sS'BASE_DIR'
p2225
S'/usr/lib/pymodules/python2.7'
p2226
sS'canvas'
p2227
NsS'EXPORT_PRESETS_DIR'
p2228
S'/usr/lib/pymodules/python2.7/openshot/export_presets'
p2229
sS'USER_TRANSITIONS_DIR'
p2230
S'/home/olli/.openshot/user_transitions'
p2231
sS'EFFECTS_DIR'
p2232
S'/usr/lib/pymodules/python2.7/openshot/effects'
p2233
sS'BLENDER_DIR'
p2234
S'/usr/lib/pymodules/python2.7/openshot/blender'
p2235
sS'thumbnailer'
p2236
Nsg24
S'Tietovisa'
p2237
sS'file_type'
p2238
S'ascii'
p2239
sS'theme'
p2240
Vfresher
p2241
sS'project_folder'
p2242
(iclasses.files
OpenShotFolder
p2243
(dp2244
S'queue'
p2245
(lp2246
sg24
S''
sS'parent'
p2247
NsS'items'
p2248
(lp2249
g1108
ag128
ag79
ag227
ag284
ag1823
ag348
ag422
ag578
ag471
a(iclasses.files
OpenShotFile
p2250
(dp2251
g81
F2530
sg82
S'Vorbis'
p2252
sg84
I0
sg85
S'/home/olli/Ty\xc3\xb6p\xc3\xb6yt\xc3\xa4/thumbnail/9c9d3f38-eba3-11e5-90d2-bc8ccdd91ea1_flv_1.png'
p2253
sg87
S'/home/olli/Ty\xc3\xb6p\xc3\xb6yt\xc3\xa4/homemade_pvc_air_ship_horn-0rmBwCR1HVg_fmt43-orig.flv'
p2254
sg89
Nsg90
S'video'
p2255
sg92
I0
sg48
I360
sg93
g1
sg49
I480
sg94
F84.451033333333328
sg95
F29.970029970029969
sg96
I1
sg97
S'On2 VP8'
p2256
sg99
(F29.970029970029969
I0
tp2257
sg101
S''
sg51
S'9caf216c-eba3-11e5-90d2-bc8ccdd91ea1'
p2258
sbag626
ag691
ag1052
ag1006
ag740
ag791
ag839
ag874
ag919
ag942
ag1088
ag2178
ag2057
ag2036
ag2015
ag1925
ag1947
ag1871
ag1904
ag2078
ag1993
ag2125
ag2156
ag1159
ag1272
ag1251
ag1218
ag1383
ag1428
ag1466
ag1487
ag1507
ag1560
ag1526
ag1581
ag1603
ag1624
asS'label'
p2259
S''
sg2211
g1
sS'location'
p2260
S''
sS'unique_id'
p2261
S'459a5d60-e941-11e5-9984-bc8ccdd91ea1'
p2262
sbsS'form'
p2263
NsS'folder'
p2264
S'/home/olli/Ty\xc3\xb6p\xc3\xb6yt\xc3\xa4'
p2265
sS'USER_PROFILES_DIR'
p2266
S'/home/olli/.openshot/user_profiles'
p2267
sb.